(lp0
(dp1
I0
(dp2
I0
(I802
I417
tp3
sI1
(I839
I432
tp4
sI2
(I810
I781
tp5
sI3
(I556
I1256
tp6
sI4
(I273
I523
tp7
sI5
(I384
I552
tp8
sI6
(I51
I564
tp9
sI7
(I98
I881
tp10
sI8
(I716
I830
tp11
sI9
(I764
I1216
tp12
sI10
(I446
I574
tp13
sI11
(I645
I1434
tp14
sI12
(I688
I1425
tp15
sI13
(I766
I1932
tp16
sI14
(I719
I1674
tp17
sI15
(I739
I1293
tp18
sI16
(I118
I1264
tp19
sI17
(I507
I1395
tp20
sI18
(I41
I1158
tp21
sI19
(I36
I1189
tp22
sI20
(I610
I632
tp23
sI21
(I763
I381
tp24
sI22
(I947
I1056
tp25
sI23
(I1270
I1213
tp26
sI24
(I888
I1162
tp27
sI25
(I839
I1132
tp28
sI26
(I820
I1362
tp29
sI27
(I780
I1423
tp30
sI28
(I750
I1393
tp31
sI29
(I475
I1250
tp32
sI30
(I884
I1309
tp33
sI31
(I19
I1215
tp34
sI32
(I42
I1169
tp35
sI33
(I30
I1256
tp36
sI34
(I488
I860
tp37
ssI390
(dp38
I0
(I806
I336
tp39
sI1
(I849
I344
tp40
sI2
(I917
I812
tp41
sI3
(I827
I383
tp42
sI4
(I164
I509
tp43
sI5
(I422
I550
tp44
sI6
(I51
I564
tp45
sI7
(I584
I107
tp46
sI8
(I822
I346
tp47
sI9
(I808
I520
tp48
sI10
(I450
I632
tp49
sI11
(I580
I1419
tp50
sI12
(I618
I1432
tp51
sI13
(I684
I1929
tp52
sI14
(I791
I1456
tp53
sI15
(I850
I1268
tp54
sI16
(I585
I1236
tp55
sI17
(I499
I1383
tp56
sI18
(I332
I1134
tp57
sI19
(I140
I1189
tp58
sI20
(I424
I975
tp59
sI21
(I19
I1128
tp60
sI22
(I617
I1028
tp61
sI23
(I1170
I1209
tp62
sI24
(I860
I77
tp63
sI25
(I821
I79
tp64
sI26
(I617
I1397
tp65
sI27
(I688
I1450
tp66
sI28
(I643
I1393
tp67
sI29
(I786
I1271
tp68
sI30
(I577
I1403
tp69
sI31
(I476
I1113
tp70
sI32
(I612
I1305
tp71
sI33
(I30
I1256
tp72
sI34
(I676
I713
tp73
ssI135
(dp74
I0
(I818
I50
tp75
sI1
(I855
I36
tp76
sI2
(I886
I828
tp77
sI3
(I859
I1167
tp78
sI4
(I117
I517
tp79
sI5
(I412
I562
tp80
sI6
(I51
I564
tp81
sI7
(I462
I799
tp82
sI8
(I846
I175
tp83
sI9
(I735
I905
tp84
sI10
(I452
I604
tp85
sI11
(I596
I1403
tp86
sI12
(I606
I1432
tp87
sI13
(I619
I1919
tp88
sI14
(I727
I1523
tp89
sI15
(I1250
I1174
tp90
sI16
(I276
I1240
tp91
sI17
(I503
I1387
tp92
sI18
(I41
I1158
tp93
sI19
(I36
I1189
tp94
sI20
(I502
I1028
tp95
sI21
(I556
I919
tp96
sI22
(I380
I1077
tp97
sI23
(I1270
I1213
tp98
sI24
(I820
I840
tp99
sI25
(I775
I867
tp100
sI26
(I705
I1389
tp101
sI27
(I682
I1440
tp102
sI28
(I643
I1393
tp103
sI29
(I653
I1315
tp104
sI30
(I884
I1309
tp105
sI31
(I19
I1215
tp106
sI32
(I25
I1162
tp107
sI33
(I30
I1256
tp108
sI34
(I508
I840
tp109
ssI270
(dp110
I0
(I812
I201
tp111
sI1
(I852
I199
tp112
sI2
(I899
I816
tp113
sI3
(I797
I746
tp114
sI4
(I37
I509
tp115
sI5
(I410
I558
tp116
sI6
(I51
I564
tp117
sI7
(I582
I481
tp118
sI8
(I838
I158
tp119
sI9
(I763
I354
tp120
sI10
(I450
I640
tp121
sI11
(I569
I1428
tp122
sI12
(I579
I1432
tp123
sI13
(I619
I1919
tp124
sI14
(I820
I1395
tp125
sI15
(I1186
I1199
tp126
sI16
(I443
I1240
tp127
sI17
(I515
I1358
tp128
sI18
(I41
I1158
tp129
sI19
(I36
I1189
tp130
sI20
(I19
I1126
tp131
sI21
(I106
I1107
tp132
sI22
(I144
I1093
tp133
sI23
(I1270
I1213
tp134
sI24
(I840
I448
tp135
sI25
(I791
I479
tp136
sI26
(I577
I1393
tp137
sI27
(I570
I1448
tp138
sI28
(I529
I1430
tp139
sI29
(I802
I1311
tp140
sI30
(I732
I1370
tp141
sI31
(I119
I1203
tp142
sI32
(I142
I1166
tp143
sI33
(I30
I1256
tp144
sI34
(I528
I823
tp145
ssI15
(dp146
I0
(I805
I358
tp147
sI1
(I853
I379
tp148
sI2
(I811
I771
tp149
sI3
(I594
I1289
tp150
sI4
(I255
I517
tp151
sI5
(I392
I552
tp152
sI6
(I51
I564
tp153
sI7
(I135
I872
tp154
sI8
(I738
I732
tp155
sI9
(I780
I1179
tp156
sI10
(I448
I585
tp157
sI11
(I639
I1430
tp158
sI12
(I682
I1425
tp159
sI13
(I750
I1932
tp160
sI14
(I719
I1654
tp161
sI15
(I803
I1281
tp162
sI16
(I134
I1260
tp163
sI17
(I505
I1391
tp164
sI18
(I41
I1158
tp165
sI19
(I36
I1189
tp166
sI20
(I608
I681
tp167
sI21
(I735
I438
tp168
sI22
(I889
I1040
tp169
sI23
(I1270
I1213
tp170
sI24
(I888
I1134
tp171
sI25
(I831
I1099
tp172
sI26
(I807
I1366
tp173
sI27
(I770
I1428
tp174
sI28
(I740
I1397
tp175
sI29
(I495
I1254
tp176
sI30
(I884
I1309
tp177
sI31
(I19
I1215
tp178
sI32
(I39
I1167
tp179
sI33
(I30
I1256
tp180
sI34
(I490
I856
tp181
ssI405
(dp182
I0
(I805
I352
tp183
sI1
(I849
I362
tp184
sI2
(I917
I812
tp185
sI3
(I827
I338
tp186
sI4
(I179
I509
tp187
sI5
(I422
I550
tp188
sI6
(I51
I564
tp189
sI7
(I580
I59
tp190
sI8
(I820
I369
tp191
sI9
(I807
I697
tp192
sI10
(I450
I632
tp193
sI11
(I581
I1419
tp194
sI12
(I623
I1432
tp195
sI13
(I693
I1929
tp196
sI14
(I764
I1505
tp197
sI15
(I808
I1276
tp198
sI16
(I605
I1240
tp199
sI17
(I499
I1383
tp200
sI18
(I401
I1123
tp201
sI19
(I198
I1189
tp202
sI20
(I476
I954
tp203
sI21
(I287
I954
tp204
sI22
(I676
I1019
tp205
sI23
(I1170
I1209
tp206
sI24
(I856
I32
tp207
sI25
(I817
I34
tp208
sI26
(I669
I1389
tp209
sI27
(I703
I1450
tp210
sI28
(I657
I1389
tp211
sI29
(I712
I1275
tp212
sI30
(I559
I1411
tp213
sI31
(I518
I1085
tp214
sI32
(I664
I1305
tp215
sI33
(I40
I1254
tp216
sI34
(I705
I693
tp217
ssI150
(dp218
I0
(I818
I69
tp219
sI1
(I855
I54
tp220
sI2
(I888
I832
tp221
sI3
(I861
I1105
tp222
sI4
(I99
I509
tp223
sI5
(I398
I562
tp224
sI6
(I51
I564
tp225
sI7
(I470
I775
tp226
sI8
(I846
I118
tp227
sI9
(I719
I836
tp228
sI10
(I452
I612
tp229
sI11
(I600
I1403
tp230
sI12
(I599
I1432
tp231
sI13
(I619
I1919
tp232
sI14
(I729
I1499
tp233
sI15
(I1314
I1158
tp234
sI16
(I294
I1240
tp235
sI17
(I503
I1387
tp236
sI18
(I41
I1158
tp237
sI19
(I36
I1189
tp238
sI20
(I470
I1060
tp239
sI21
(I532
I977
tp240
sI22
(I319
I1085
tp241
sI23
(I1270
I1213
tp242
sI24
(I820
I795
tp243
sI25
(I773
I822
tp244
sI26
(I691
I1385
tp245
sI27
(I670
I1442
tp246
sI28
(I631
I1389
tp247
sI29
(I671
I1328
tp248
sI30
(I880
I1309
tp249
sI31
(I19
I1215
tp250
sI32
(I23
I1162
tp251
sI33
(I30
I1256
tp252
sI34
(I510
I840
tp253
ssI285
(dp254
I0
(I811
I220
tp255
sI1
(I852
I217
tp256
sI2
(I913
I812
tp257
sI3
(I797
I697
tp258
sI4
(I53
I509
tp259
sI5
(I410
I558
tp260
sI6
(I51
I564
tp261
sI7
(I600
I436
tp262
sI8
(I836
I181
tp263
sI9
(I782
I291
tp264
sI10
(I450
I640
tp265
sI11
(I571
I1428
tp266
sI12
(I584
I1432
tp267
sI13
(I621
I1919
tp268
sI14
(I830
I1385
tp269
sI15
(I1145
I1211
tp270
sI16
(I463
I1240
tp271
sI17
(I509
I1362
tp272
sI18
(I41
I1158
tp273
sI19
(I36
I1189
tp274
sI20
(I63
I1105
tp275
sI21
(I57
I1119
tp276
sI22
(I203
I1085
tp277
sI23
(I1270
I1213
tp278
sI24
(I846
I403
tp279
sI25
(I807
I414
tp280
sI26
(I563
I1393
tp281
sI27
(I584
I1448
tp282
sI28
(I543
I1421
tp283
sI29
(I820
I1303
tp284
sI30
(I710
I1374
tp285
sI31
(I165
I1203
tp286
sI32
(I200
I1170
tp287
sI33
(I30
I1256
tp288
sI34
(I530
I823
tp289
ssI30
(dp290
I0
(I815
I320
tp291
sI1
(I853
I326
tp292
sI2
(I819
I785
tp293
sI3
(I646
I1289
tp294
sI4
(I239
I513
tp295
sI5
(I404
I552
tp296
sI6
(I51
I564
tp297
sI7
(I175
I864
tp298
sI8
(I751
I662
tp299
sI9
(I790
I1162
tp300
sI10
(I453
I599
tp301
sI11
(I621
I1423
tp302
sI12
(I666
I1428
tp303
sI13
(I736
I1932
tp304
sI14
(I719
I1638
tp305
sI15
(I853
I1260
tp306
sI16
(I150
I1256
tp307
sI17
(I505
I1391
tp308
sI18
(I41
I1158
tp309
sI19
(I36
I1189
tp310
sI20
(I606
I730
tp311
sI21
(I707
I499
tp312
sI22
(I833
I1024
tp313
sI23
(I1270
I1213
tp314
sI24
(I888
I1105
tp315
sI25
(I823
I1071
tp316
sI26
(I794
I1372
tp317
sI27
(I762
I1432
tp318
sI28
(I732
I1401
tp319
sI29
(I517
I1262
tp320
sI30
(I884
I1309
tp321
sI31
(I19
I1215
tp322
sI32
(I37
I1165
tp323
sI33
(I30
I1256
tp324
sI34
(I492
I856
tp325
ssI420
(dp326
I0
(I805
I371
tp327
sI1
(I849
I381
tp328
sI2
(I917
I812
tp329
sI3
(I831
I301
tp330
sI4
(I195
I509
tp331
sI5
(I424
I550
tp332
sI6
(I51
I564
tp333
sI7
(I554
I105
tp334
sI8
(I818
I393
tp335
sI9
(I805
I870
tp336
sI10
(I450
I628
tp337
sI11
(I582
I1419
tp338
sI12
(I628
I1432
tp339
sI13
(I702
I1932
tp340
sI14
(I736
I1554
tp341
sI15
(I766
I1285
tp342
sI16
(I623
I1240
tp343
sI17
(I499
I1383
tp344
sI18
(I457
I1115
tp345
sI19
(I256
I1189
tp346
sI20
(I528
I938
tp347
sI21
(I574
I771
tp348
sI22
(I735
I1011
tp349
sI23
(I1160
I1209
tp350
sI24
(I856
I20
tp351
sI25
(I817
I22
tp352
sI26
(I718
I1385
tp353
sI27
(I717
I1450
tp354
sI28
(I671
I1385
tp355
sI29
(I639
I1283
tp356
sI30
(I541
I1423
tp357
sI31
(I560
I1048
tp358
sI32
(I711
I1293
tp359
sI33
(I51
I1252
tp360
sI34
(I735
I668
tp361
ssI165
(dp362
I0
(I817
I85
tp363
sI1
(I855
I73
tp364
sI2
(I890
I834
tp365
sI3
(I853
I1065
tp366
sI4
(I83
I505
tp367
sI5
(I398
I562
tp368
sI6
(I51
I564
tp369
sI7
(I492
I754
tp370
sI8
(I846
I58
tp371
sI9
(I711
I787
tp372
sI10
(I452
I616
tp373
sI11
(I602
I1399
tp374
sI12
(I593
I1432
tp375
sI13
(I619
I1919
tp376
sI14
(I735
I1474
tp377
sI15
(I1378
I1154
tp378
sI16
(I312
I1240
tp379
sI17
(I509
I1378
tp380
sI18
(I41
I1158
tp381
sI19
(I36
I1189
tp382
sI20
(I422
I1081
tp383
sI21
(I508
I1030
tp384
sI22
(I253
I1093
tp385
sI23
(I1270
I1213
tp386
sI24
(I820
I754
tp387
sI25
(I769
I777
tp388
sI26
(I677
I1385
tp389
sI27
(I657
I1442
tp390
sI28
(I619
I1385
tp391
sI29
(I685
I1332
tp392
sI30
(I864
I1317
tp393
sI31
(I19
I1215
tp394
sI32
(I22
I1162
tp395
sI33
(I30
I1256
tp396
sI34
(I512
I836
tp397
ssI300
(dp398
I0
(I810
I236
tp399
sI1
(I852
I236
tp400
sI2
(I913
I812
tp401
sI3
(I799
I640
tp402
sI4
(I69
I509
tp403
sI5
(I412
I554
tp404
sI6
(I51
I564
tp405
sI7
(I600
I395
tp406
sI8
(I834
I205
tp407
sI9
(I795
I224
tp408
sI10
(I450
I644
tp409
sI11
(I572
I1423
tp410
sI12
(I589
I1432
tp411
sI13
(I631
I1919
tp412
sI14
(I840
I1368
tp413
sI15
(I1102
I1219
tp414
sI16
(I485
I1240
tp415
sI17
(I501
I1366
tp416
sI18
(I41
I1158
tp417
sI19
(I36
I1189
tp418
sI20
(I115
I1089
tp419
sI21
(I19
I1128
tp420
sI22
(I262
I1077
tp421
sI23
(I1270
I1213
tp422
sI24
(I852
I358
tp423
sI25
(I823
I348
tp424
sI26
(I549
I1393
tp425
sI27
(I599
I1448
tp426
sI28
(I557
I1417
tp427
sI29
(I838
I1299
tp428
sI30
(I693
I1383
tp429
sI31
(I213
I1207
tp430
sI32
(I259
I1170
tp431
sI33
(I30
I1256
tp432
sI34
(I532
I819
tp433
ssI45
(dp434
I0
(I818
I285
tp435
sI1
(I855
I281
tp436
sI2
(I836
I785
tp437
sI3
(I699
I1301
tp438
sI4
(I219
I513
tp439
sI5
(I412
I550
tp440
sI6
(I51
I564
tp441
sI7
(I219
I856
tp442
sI8
(I775
I597
tp443
sI9
(I794
I1121
tp444
sI10
(I453
I610
tp445
sI11
(I602
I1419
tp446
sI12
(I652
I1432
tp447
sI13
(I716
I1932
tp448
sI14
(I719
I1621
tp449
sI15
(I911
I1236
tp450
sI16
(I166
I1252
tp451
sI17
(I505
I1391
tp452
sI18
(I41
I1158
tp453
sI19
(I36
I1189
tp454
sI20
(I604
I779
tp455
sI21
(I680
I556
tp456
sI22
(I777
I1007
tp457
sI23
(I1270
I1213
tp458
sI24
(I884
I1072
tp459
sI25
(I817
I1042
tp460
sI26
(I781
I1376
tp461
sI27
(I752
I1436
tp462
sI28
(I722
I1405
tp463
sI29
(I539
I1271
tp464
sI30
(I884
I1309
tp465
sI31
(I19
I1215
tp466
sI32
(I36
I1165
tp467
sI33
(I30
I1256
tp468
sI34
(I494
I852
tp469
ssI180
(dp470
I0
(I816
I101
tp471
sI1
(I855
I91
tp472
sI2
(I890
I838
tp473
sI3
(I847
I1032
tp474
sI4
(I67
I505
tp475
sI5
(I400
I562
tp476
sI6
(I51
I564
tp477
sI7
(I512
I717
tp478
sI8
(I848
I18
tp479
sI9
(I705
I726
tp480
sI10
(I452
I624
tp481
sI11
(I604
I1399
tp482
sI12
(I587
I1432
tp483
sI13
(I619
I1919
tp484
sI14
(I743
I1456
tp485
sI15
(I1425
I1154
tp486
sI16
(I330
I1240
tp487
sI17
(I517
I1374
tp488
sI18
(I41
I1158
tp489
sI19
(I36
I1189
tp490
sI20
(I370
I1101
tp491
sI21
(I472
I1074
tp492
sI22
(I182
I1097
tp493
sI23
(I1270
I1213
tp494
sI24
(I820
I709
tp495
sI25
(I767
I732
tp496
sI26
(I663
I1385
tp497
sI27
(I646
I1440
tp498
sI28
(I607
I1389
tp499
sI29
(I700
I1340
tp500
sI30
(I848
I1321
tp501
sI31
(I19
I1215
tp502
sI32
(I20
I1160
tp503
sI33
(I30
I1256
tp504
sI34
(I514
I836
tp505
ssI315
(dp506
I0
(I810
I252
tp507
sI1
(I851
I254
tp508
sI2
(I913
I812
tp509
sI3
(I807
I587
tp510
sI4
(I85
I509
tp511
sI5
(I414
I554
tp512
sI6
(I51
I564
tp513
sI7
(I602
I342
tp514
sI8
(I832
I228
tp515
sI9
(I809
I158
tp516
sI10
(I450
I644
tp517
sI11
(I573
I1423
tp518
sI12
(I594
I1432
tp519
sI13
(I639
I1921
tp520
sI14
(I850
I1360
tp521
sI15
(I1061
I1227
tp522
sI16
(I501
I1236
tp523
sI17
(I495
I1366
tp524
sI18
(I41
I1158
tp525
sI19
(I36
I1189
tp526
sI20
(I167
I1068
tp527
sI21
(I19
I1128
tp528
sI22
(I321
I1068
tp529
sI23
(I1270
I1213
tp530
sI24
(I856
I309
tp531
sI25
(I833
I295
tp532
sI26
(I537
I1393
tp533
sI27
(I614
I1448
tp534
sI28
(I571
I1413
tp535
sI29
(I858
I1291
tp536
sI30
(I673
I1387
tp537
sI31
(I251
I1191
tp538
sI32
(I327
I1183
tp539
sI33
(I30
I1256
tp540
sI34
(I534
I819
tp541
ssI60
(dp542
I0
(I816
I232
tp543
sI1
(I855
I224
tp544
sI2
(I852
I787
tp545
sI3
(I747
I1293
tp546
sI4
(I213
I513
tp547
sI5
(I418
I550
tp548
sI6
(I51
I564
tp549
sI7
(I263
I852
tp550
sI8
(I786
I532
tp551
sI9
(I788
I1089
tp552
sI10
(I452
I618
tp553
sI11
(I584
I1419
tp554
sI12
(I640
I1432
tp555
sI13
(I699
I1930
tp556
sI14
(I719
I1601
tp557
sI15
(I967
I1211
tp558
sI16
(I184
I1248
tp559
sI17
(I505
I1391
tp560
sI18
(I41
I1158
tp561
sI19
(I36
I1189
tp562
sI20
(I600
I824
tp563
sI21
(I652
I617
tp564
sI22
(I711
I1015
tp565
sI23
(I1270
I1213
tp566
sI24
(I882
I1044
tp567
sI25
(I809
I1014
tp568
sI26
(I770
I1381
tp569
sI27
(I742
I1444
tp570
sI28
(I707
I1401
tp571
sI29
(I561
I1275
tp572
sI30
(I884
I1309
tp573
sI31
(I19
I1215
tp574
sI32
(I34
I1164
tp575
sI33
(I30
I1256
tp576
sI34
(I496
I852
tp577
ssI195
(dp578
I0
(I816
I118
tp579
sI1
(I854
I109
tp580
sI2
(I875
I824
tp581
sI3
(I847
I971
tp582
sI4
(I52
I505
tp583
sI5
(I402
I562
tp584
sI6
(I51
I564
tp585
sI7
(I540
I672
tp586
sI8
(I846
I40
tp587
sI9
(I709
I672
tp588
sI10
(I452
I632
tp589
sI11
(I592
I1407
tp590
sI12
(I581
I1432
tp591
sI13
(I619
I1919
tp592
sI14
(I753
I1454
tp593
sI15
(I1397
I1158
tp594
sI16
(I347
I1240
tp595
sI17
(I517
I1358
tp596
sI18
(I41
I1158
tp597
sI19
(I36
I1189
tp598
sI20
(I317
I1109
tp599
sI21
(I416
I1095
tp600
sI22
(I112
I1105
tp601
sI23
(I1270
I1213
tp602
sI24
(I820
I664
tp603
sI25
(I771
I687
tp604
sI26
(I651
I1385
tp605
sI27
(I634
I1440
tp606
sI28
(I595
I1397
tp607
sI29
(I716
I1344
tp608
sI30
(I832
I1330
tp609
sI31
(I19
I1215
tp610
sI32
(I18
I1162
tp611
sI33
(I30
I1256
tp612
sI34
(I516
I832
tp613
ssI330
(dp614
I0
(I809
I269
tp615
sI1
(I850
I271
tp616
sI2
(I915
I812
tp617
sI3
(I811
I567
tp618
sI4
(I100
I509
tp619
sI5
(I416
I554
tp620
sI6
(I51
I564
tp621
sI7
(I596
I277
tp622
sI8
(I830
I252
tp623
sI9
(I813
I81
tp624
sI10
(I450
I644
tp625
sI11
(I575
I1423
tp626
sI12
(I599
I1432
tp627
sI13
(I648
I1923
tp628
sI14
(I858
I1356
tp629
sI15
(I1019
I1236
tp630
sI16
(I517
I1236
tp631
sI17
(I489
I1362
tp632
sI18
(I41
I1158
tp633
sI19
(I36
I1189
tp634
sI20
(I219
I1052
tp635
sI21
(I19
I1128
tp636
sI22
(I380
I1060
tp637
sI23
(I1270
I1213
tp638
sI24
(I860
I260
tp639
sI25
(I833
I259
tp640
sI26
(I527
I1397
tp641
sI27
(I628
I1448
tp642
sI28
(I585
I1409
tp643
sI29
(I882
I1279
tp644
sI30
(I655
I1395
tp645
sI31
(I293
I1179
tp646
sI32
(I390
I1199
tp647
sI33
(I30
I1256
tp648
sI34
(I556
I803
tp649
ssI75
(dp650
I0
(I818
I191
tp651
sI1
(I857
I187
tp652
sI2
(I836
I826
tp653
sI3
(I799
I1261
tp654
sI4
(I205
I509
tp655
sI5
(I426
I550
tp656
sI6
(I51
I564
tp657
sI7
(I295
I848
tp658
sI8
(I818
I446
tp659
sI9
(I786
I1052
tp660
sI10
(I452
I624
tp661
sI11
(I586
I1415
tp662
sI12
(I630
I1432
tp663
sI13
(I681
I1930
tp664
sI14
(I719
I1585
tp665
sI15
(I1021
I1191
tp666
sI16
(I202
I1248
tp667
sI17
(I505
I1391
tp668
sI18
(I41
I1158
tp669
sI19
(I36
I1189
tp670
sI20
(I584
I864
tp671
sI21
(I632
I679
tp672
sI22
(I644
I1028
tp673
sI23
(I1270
I1213
tp674
sI24
(I862
I999
tp675
sI25
(I803
I985
tp676
sI26
(I758
I1381
tp677
sI27
(I730
I1448
tp678
sI28
(I687
I1389
tp679
sI29
(I583
I1283
tp680
sI30
(I884
I1309
tp681
sI31
(I19
I1215
tp682
sI32
(I32
I1164
tp683
sI33
(I30
I1256
tp684
sI34
(I498
I848
tp685
ssI210
(dp686
I0
(I815
I134
tp687
sI1
(I854
I126
tp688
sI2
(I877
I824
tp689
sI3
(I833
I926
tp690
sI4
(I35
I505
tp691
sI5
(I404
I562
tp692
sI6
(I51
I564
tp693
sI7
(I552
I632
tp694
sI8
(I846
I64
tp695
sI9
(I713
I611
tp696
sI10
(I450
I636
tp697
sI11
(I581
I1415
tp698
sI12
(I574
I1432
tp699
sI13
(I619
I1919
tp700
sI14
(I769
I1442
tp701
sI15
(I1355
I1166
tp702
sI16
(I365
I1240
tp703
sI17
(I515
I1342
tp704
sI18
(I41
I1158
tp705
sI19
(I36
I1189
tp706
sI20
(I257
I1117
tp707
sI21
(I354
I1103
tp708
sI22
(I42
I1109
tp709
sI23
(I1270
I1213
tp710
sI24
(I820
I624
tp711
sI25
(I775
I646
tp712
sI26
(I637
I1389
tp713
sI27
(I622
I1436
tp714
sI28
(I585
I1405
tp715
sI29
(I732
I1340
tp716
sI30
(I812
I1342
tp717
sI31
(I19
I1215
tp718
sI32
(I16
I1160
tp719
sI33
(I30
I1256
tp720
sI34
(I518
I832
tp721
ssI345
(dp722
I0
(I808
I287
tp723
sI1
(I850
I291
tp724
sI2
(I915
I812
tp725
sI3
(I813
I518
tp726
sI4
(I116
I509
tp727
sI5
(I416
I554
tp728
sI6
(I51
I564
tp729
sI7
(I590
I232
tp730
sI8
(I828
I275
tp731
sI9
(I813
I40
tp732
sI10
(I450
I644
tp733
sI11
(I576
I1423
tp734
sI12
(I604
I1432
tp735
sI13
(I658
I1925
tp736
sI14
(I867
I1330
tp737
sI15
(I977
I1244
tp738
sI16
(I533
I1236
tp739
sI17
(I491
I1370
tp740
sI18
(I109
I1150
tp741
sI19
(I36
I1189
tp742
sI20
(I271
I1032
tp743
sI21
(I19
I1128
tp744
sI22
(I439
I1052
tp745
sI23
(I1244
I1209
tp746
sI24
(I864
I211
tp747
sI25
(I831
I218
tp748
sI26
(I521
I1401
tp749
sI27
(I644
I1448
tp750
sI28
(I599
I1405
tp751
sI29
(I908
I1267
tp752
sI30
(I637
I1399
tp753
sI31
(I339
I1175
tp754
sI32
(I442
I1219
tp755
sI33
(I30
I1256
tp756
sI34
(I586
I779
tp757
ssI90
(dp758
I0
(I818
I126
tp759
sI1
(I853
I128
tp760
sI2
(I866
I799
tp761
sI3
(I815
I1256
tp762
sI4
(I177
I513
tp763
sI5
(I430
I554
tp764
sI6
(I51
I564
tp765
sI7
(I346
I844
tp766
sI8
(I822
I379
tp767
sI9
(I799
I979
tp768
sI10
(I452
I612
tp769
sI11
(I588
I1411
tp770
sI12
(I624
I1432
tp771
sI13
(I665
I1930
tp772
sI14
(I723
I1564
tp773
sI15
(I1074
I1187
tp774
sI16
(I220
I1244
tp775
sI17
(I503
I1387
tp776
sI18
(I41
I1158
tp777
sI19
(I36
I1189
tp778
sI20
(I570
I901
tp779
sI21
(I616
I740
tp780
sI22
(I578
I1040
tp781
sI23
(I1270
I1213
tp782
sI24
(I844
I954
tp783
sI25
(I795
I956
tp784
sI26
(I744
I1381
tp785
sI27
(I718
I1448
tp786
sI28
(I675
I1389
tp787
sI29
(I601
I1291
tp788
sI30
(I884
I1309
tp789
sI31
(I19
I1215
tp790
sI32
(I31
I1162
tp791
sI33
(I30
I1256
tp792
sI34
(I500
I848
tp793
ssI225
(dp794
I0
(I814
I152
tp795
sI1
(I854
I146
tp796
sI2
(I881
I824
tp797
sI3
(I815
I889
tp798
sI4
(I27
I509
tp799
sI5
(I404
I558
tp800
sI6
(I51
I564
tp801
sI7
(I560
I591
tp802
sI8
(I844
I87
tp803
sI9
(I717
I554
tp804
sI10
(I450
I636
tp805
sI11
(I569
I1428
tp806
sI12
(I567
I1432
tp807
sI13
(I619
I1919
tp808
sI14
(I786
I1425
tp809
sI15
(I1313
I1174
tp810
sI16
(I381
I1240
tp811
sI17
(I515
I1342
tp812
sI18
(I41
I1158
tp813
sI19
(I36
I1189
tp814
sI20
(I185
I1117
tp815
sI21
(I291
I1103
tp816
sI22
(I14
I1113
tp817
sI23
(I1270
I1213
tp818
sI24
(I820
I579
tp819
sI25
(I779
I606
tp820
sI26
(I625
I1389
tp821
sI27
(I610
I1436
tp822
sI28
(I573
I1413
tp823
sI29
(I750
I1336
tp824
sI30
(I794
I1358
tp825
sI31
(I19
I1215
tp826
sI32
(I14
I1160
tp827
sI33
(I30
I1256
tp828
sI34
(I520
I828
tp829
ssI360
(dp830
I0
(I807
I303
tp831
sI1
(I850
I307
tp832
sI2
(I915
I812
tp833
sI3
(I817
I460
tp834
sI4
(I132
I509
tp835
sI5
(I418
I550
tp836
sI6
(I51
I564
tp837
sI7
(I584
I191
tp838
sI8
(I826
I299
tp839
sI9
(I811
I169
tp840
sI10
(I450
I640
tp841
sI11
(I577
I1423
tp842
sI12
(I608
I1432
tp843
sI13
(I666
I1925
tp844
sI14
(I848
I1358
tp845
sI15
(I935
I1252
tp846
sI16
(I549
I1236
tp847
sI17
(I499
I1383
tp848
sI18
(I177
I1146
tp849
sI19
(I36
I1189
tp850
sI20
(I323
I1011
tp851
sI21
(I19
I1128
tp852
sI22
(I498
I1044
tp853
sI23
(I1224
I1221
tp854
sI24
(I868
I166
tp855
sI25
(I827
I169
tp856
sI26
(I515
I1409
tp857
sI27
(I659
I1450
tp858
sI28
(I613
I1401
tp859
sI29
(I934
I1258
tp860
sI30
(I615
I1399
tp861
sI31
(I386
I1162
tp862
sI32
(I496
I1244
tp863
sI33
(I30
I1256
tp864
sI34
(I616
I758
tp865
ssI105
(dp866
I0
(I818
I77
tp867
sI1
(I853
I83
tp868
sI2
(I866
I830
tp869
sI3
(I829
I1236
tp870
sI4
(I151
I517
tp871
sI5
(I436
I558
tp872
sI6
(I51
I564
tp873
sI7
(I388
I852
tp874
sI8
(I838
I281
tp875
sI9
(I787
I946
tp876
sI10
(I452
I599
tp877
sI11
(I592
I1411
tp878
sI12
(I618
I1432
tp879
sI13
(I649
I1930
tp880
sI14
(I729
I1548
tp881
sI15
(I1130
I1183
tp882
sI16
(I240
I1244
tp883
sI17
(I503
I1387
tp884
sI18
(I41
I1158
tp885
sI19
(I36
I1189
tp886
sI20
(I552
I946
tp887
sI21
(I598
I801
tp888
sI22
(I510
I1052
tp889
sI23
(I1270
I1213
tp890
sI24
(I832
I917
tp891
sI25
(I787
I928
tp892
sI26
(I730
I1385
tp893
sI27
(I707
I1444
tp894
sI28
(I665
I1393
tp895
sI29
(I619
I1299
tp896
sI30
(I884
I1309
tp897
sI31
(I19
I1215
tp898
sI32
(I28
I1164
tp899
sI33
(I30
I1256
tp900
sI34
(I502
I844
tp901
ssI240
(dp902
I0
(I813
I169
tp903
sI1
(I853
I162
tp904
sI2
(I883
I824
tp905
sI3
(I809
I836
tp906
sI4
(I27
I509
tp907
sI5
(I406
I558
tp908
sI6
(I51
I564
tp909
sI7
(I568
I550
tp910
sI8
(I842
I111
tp911
sI9
(I731
I481
tp912
sI10
(I450
I636
tp913
sI11
(I567
I1428
tp914
sI12
(I569
I1432
tp915
sI13
(I619
I1919
tp916
sI14
(I800
I1413
tp917
sI15
(I1271
I1183
tp918
sI16
(I401
I1240
tp919
sI17
(I515
I1350
tp920
sI18
(I41
I1158
tp921
sI19
(I36
I1189
tp922
sI20
(I115
I1121
tp923
sI21
(I229
I1103
tp924
sI22
(I24
I1109
tp925
sI23
(I1270
I1213
tp926
sI24
(I826
I534
tp927
sI25
(I783
I561
tp928
sI26
(I609
I1393
tp929
sI27
(I598
I1436
tp930
sI28
(I559
I1417
tp931
sI29
(I768
I1328
tp932
sI30
(I774
I1370
tp933
sI31
(I29
I1211
tp934
sI32
(I28
I1162
tp935
sI33
(I30
I1256
tp936
sI34
(I524
I828
tp937
ssI375
(dp938
I0
(I807
I320
tp939
sI1
(I849
I326
tp940
sI2
(I915
I812
tp941
sI3
(I819
I424
tp942
sI4
(I148
I509
tp943
sI5
(I420
I550
tp944
sI6
(I51
I564
tp945
sI7
(I578
I146
tp946
sI8
(I824
I322
tp947
sI9
(I809
I342
tp948
sI10
(I450
I636
tp949
sI11
(I578
I1419
tp950
sI12
(I613
I1432
tp951
sI13
(I675
I1927
tp952
sI14
(I820
I1407
tp953
sI15
(I893
I1260
tp954
sI16
(I567
I1236
tp955
sI17
(I499
I1383
tp956
sI18
(I249
I1142
tp957
sI19
(I82
I1189
tp958
sI20
(I372
I995
tp959
sI21
(I19
I1128
tp960
sI22
(I558
I1036
tp961
sI23
(I1200
I1221
tp962
sI24
(I864
I119
tp963
sI25
(I823
I124
tp964
sI26
(I565
I1401
tp965
sI27
(I673
I1450
tp966
sI28
(I627
I1397
tp967
sI29
(I860
I1262
tp968
sI30
(I595
I1399
tp969
sI31
(I434
I1130
tp970
sI32
(I552
I1285
tp971
sI33
(I30
I1256
tp972
sI34
(I646
I738
tp973
ssI120
(dp974
I0
(I818
I46
tp975
sI1
(I857
I38
tp976
sI2
(I884
I828
tp977
sI3
(I855
I1203
tp978
sI4
(I133
I517
tp979
sI5
(I432
I562
tp980
sI6
(I51
I564
tp981
sI7
(I424
I819
tp982
sI8
(I844
I236
tp983
sI9
(I767
I917
tp984
sI10
(I452
I595
tp985
sI11
(I594
I1407
tp986
sI12
(I612
I1432
tp987
sI13
(I632
I1921
tp988
sI14
(I731
I1532
tp989
sI15
(I1190
I1178
tp990
sI16
(I258
I1244
tp991
sI17
(I503
I1387
tp992
sI18
(I41
I1158
tp993
sI19
(I36
I1189
tp994
sI20
(I530
I991
tp995
sI21
(I578
I862
tp996
sI22
(I442
I1064
tp997
sI23
(I1270
I1213
tp998
sI24
(I820
I885
tp999
sI25
(I781
I899
tp1000
sI26
(I718
I1393
tp1001
sI27
(I695
I1440
tp1002
sI28
(I657
I1401
tp1003
sI29
(I635
I1307
tp1004
sI30
(I884
I1309
tp1005
sI31
(I19
I1215
tp1006
sI32
(I26
I1162
tp1007
sI33
(I30
I1256
tp1008
sI34
(I506
I844
tp1009
ssI255
(dp1010
I0
(I813
I185
tp1011
sI1
(I852
I181
tp1012
sI2
(I885
I824
tp1013
sI3
(I807
I791
tp1014
sI4
(I27
I509
tp1015
sI5
(I408
I558
tp1016
sI6
(I51
I564
tp1017
sI7
(I576
I517
tp1018
sI8
(I840
I134
tp1019
sI9
(I747
I415
tp1020
sI10
(I450
I640
tp1021
sI11
(I569
I1428
tp1022
sI12
(I575
I1432
tp1023
sI13
(I619
I1919
tp1024
sI14
(I810
I1401
tp1025
sI15
(I1229
I1191
tp1026
sI16
(I423
I1240
tp1027
sI17
(I517
I1354
tp1028
sI18
(I41
I1158
tp1029
sI19
(I36
I1189
tp1030
sI20
(I47
I1126
tp1031
sI21
(I165
I1103
tp1032
sI22
(I84
I1101
tp1033
sI23
(I1270
I1213
tp1034
sI24
(I832
I493
tp1035
sI25
(I787
I520
tp1036
sI26
(I593
I1393
tp1037
sI27
(I584
I1440
tp1038
sI28
(I543
I1421
tp1039
sI29
(I786
I1320
tp1040
sI30
(I752
I1370
tp1041
sI31
(I75
I1207
tp1042
sI32
(I86
I1162
tp1043
sI33
(I30
I1256
tp1044
sI34
(I526
I828
tp1045
ssa(dp1046
I0
S'Cart'
p1047
sI1
S'Cart'
p1048
sI2
S'Pedestrian'
p1049
sI3
S'Cart'
p1050
sI4
S'Pedestrian'
p1051
sI5
S'Pedestrian'
p1052
sI6
S'Pedestrian'
p1053
sI7
S'Pedestrian'
p1054
sI8
S'Biker'
p1055
sI9
S'Biker'
p1056
sI10
S'Pedestrian'
p1057
sI11
S'Pedestrian'
p1058
sI12
S'Pedestrian'
p1059
sI13
S'Cart'
p1060
sI14
S'Pedestrian'
p1061
sI15
S'Pedestrian'
p1062
sI16
S'Pedestrian'
p1063
sI17
S'Pedestrian'
p1064
sI18
S'Biker'
p1065
sI19
S'Biker'
p1066
sI20
S'Biker'
p1067
sI21
S'Biker'
p1068
sI22
S'Biker'
p1069
sI23
S'Pedestrian'
p1070
sI24
S'Biker'
p1071
sI25
S'Biker'
p1072
sI26
S'Pedestrian'
p1073
sI27
S'Pedestrian'
p1074
sI28
S'Pedestrian'
p1075
sI29
S'Biker'
p1076
sI30
S'Pedestrian'
p1077
sI31
S'Biker'
p1078
sI32
S'Biker'
p1079
sI33
S'Biker'
p1080
sI34
S'Biker'
p1081
sa(dp1082
I0
(dp1083
I0
(lp1084
g3
asI1
(lp1085
g4
asI2
(lp1086
g5
asI3
(lp1087
g6
asI4
(lp1088
g7
asI5
(lp1089
g8
asI6
(lp1090
g9
asI7
(lp1091
g10
asI8
(lp1092
g11
asI9
(lp1093
g12
asI10
(lp1094
g13
asI11
(lp1095
g14
asI12
(lp1096
g15
asI13
(lp1097
g16
asI14
(lp1098
g17
asI15
(lp1099
g18
asI16
(lp1100
g19
asI17
(lp1101
g20
asI18
(lp1102
g21
asI19
(lp1103
g22
asI20
(lp1104
g23
asI21
(lp1105
g24
asI22
(lp1106
g25
asI23
(lp1107
g26
asI24
(lp1108
g27
asI25
(lp1109
g28
asI26
(lp1110
g29
asI27
(lp1111
g30
asI28
(lp1112
g31
asI29
(lp1113
g32
asI30
(lp1114
g33
asI31
(lp1115
g34
asI32
(lp1116
g35
asI33
(lp1117
g36
asI34
(lp1118
g37
assI390
(dp1119
I0
(lp1120
g3
ag147
ag291
ag435
ag543
ag651
ag759
ag867
ag975
ag75
ag219
ag363
ag471
ag579
ag687
ag795
ag903
ag1011
ag111
ag255
ag399
ag507
ag615
ag723
ag831
ag939
ag39
asI1
(lp1121
g4
ag148
ag292
ag436
ag544
ag652
ag760
ag868
ag976
ag76
ag220
ag364
ag472
ag580
ag688
ag796
ag904
ag1012
ag112
ag256
ag400
ag508
ag616
ag724
ag832
ag940
ag40
asI2
(lp1122
g5
ag149
ag293
ag437
ag545
ag653
ag761
ag869
ag977
ag77
ag221
ag365
ag473
ag581
ag689
ag797
ag905
ag1013
ag113
ag257
ag401
ag509
ag617
ag725
ag833
ag941
ag41
asI3
(lp1123
g6
ag150
ag294
ag438
ag546
ag654
ag762
ag870
ag978
ag78
ag222
ag366
ag474
ag582
ag690
ag798
ag906
ag1014
ag114
ag258
ag402
ag510
ag618
ag726
ag834
ag942
ag42
asI4
(lp1124
g7
ag151
ag295
ag439
ag547
ag655
ag763
ag871
ag979
ag79
ag223
ag367
ag475
ag583
ag691
ag799
ag907
ag1015
ag115
ag259
ag403
ag511
ag619
ag727
ag835
ag943
ag43
asI5
(lp1125
g8
ag152
ag296
ag440
ag548
ag656
ag764
ag872
ag980
ag80
ag224
ag368
ag476
ag584
ag692
ag800
ag908
ag1016
ag116
ag260
ag404
ag512
ag620
ag728
ag836
ag944
ag44
asI6
(lp1126
g9
ag153
ag297
ag441
ag549
ag657
ag765
ag873
ag981
ag81
ag225
ag369
ag477
ag585
ag693
ag801
ag909
ag1017
ag117
ag261
ag405
ag513
ag621
ag729
ag837
ag945
ag45
asI7
(lp1127
g10
ag154
ag298
ag442
ag550
ag658
ag766
ag874
ag982
ag82
ag226
ag370
ag478
ag586
ag694
ag802
ag910
ag1018
ag118
ag262
ag406
ag514
ag622
ag730
ag838
ag946
ag46
asI8
(lp1128
g11
ag155
ag299
ag443
ag551
ag659
ag767
ag875
ag983
ag83
ag227
ag371
ag479
ag587
ag695
ag803
ag911
ag1019
ag119
ag263
ag407
ag515
ag623
ag731
ag839
ag947
ag47
asI9
(lp1129
g12
ag156
ag300
ag444
ag552
ag660
ag768
ag876
ag984
ag84
ag228
ag372
ag480
ag588
ag696
ag804
ag912
ag1020
ag120
ag264
ag408
ag516
ag624
ag732
ag840
ag948
ag48
asI10
(lp1130
g13
ag157
ag301
ag445
ag553
ag661
ag769
ag877
ag985
ag85
ag229
ag373
ag481
ag589
ag697
ag805
ag913
ag1021
ag121
ag265
ag409
ag517
ag625
ag733
ag841
ag949
ag49
asI11
(lp1131
g14
ag158
ag302
ag446
ag554
ag662
ag770
ag878
ag986
ag86
ag230
ag374
ag482
ag590
ag698
ag806
ag914
ag1022
ag122
ag266
ag410
ag518
ag626
ag734
ag842
ag950
ag50
asI12
(lp1132
g15
ag159
ag303
ag447
ag555
ag663
ag771
ag879
ag987
ag87
ag231
ag375
ag483
ag591
ag699
ag807
ag915
ag1023
ag123
ag267
ag411
ag519
ag627
ag735
ag843
ag951
ag51
asI13
(lp1133
g16
ag160
ag304
ag448
ag556
ag664
ag772
ag880
ag988
ag88
ag232
ag376
ag484
ag592
ag700
ag808
ag916
ag1024
ag124
ag268
ag412
ag520
ag628
ag736
ag844
ag952
ag52
asI14
(lp1134
g17
ag161
ag305
ag449
ag557
ag665
ag773
ag881
ag989
ag89
ag233
ag377
ag485
ag593
ag701
ag809
ag917
ag1025
ag125
ag269
ag413
ag521
ag629
ag737
ag845
ag953
ag53
asI15
(lp1135
g18
ag162
ag306
ag450
ag558
ag666
ag774
ag882
ag990
ag90
ag234
ag378
ag486
ag594
ag702
ag810
ag918
ag1026
ag126
ag270
ag414
ag522
ag630
ag738
ag846
ag954
ag54
asI16
(lp1136
g19
ag163
ag307
ag451
ag559
ag667
ag775
ag883
ag991
ag91
ag235
ag379
ag487
ag595
ag703
ag811
ag919
ag1027
ag127
ag271
ag415
ag523
ag631
ag739
ag847
ag955
ag55
asI17
(lp1137
g20
ag164
ag308
ag452
ag560
ag668
ag776
ag884
ag992
ag92
ag236
ag380
ag488
ag596
ag704
ag812
ag920
ag1028
ag128
ag272
ag416
ag524
ag632
ag740
ag848
ag956
ag56
asI18
(lp1138
g21
ag165
ag309
ag453
ag561
ag669
ag777
ag885
ag993
ag93
ag237
ag381
ag489
ag597
ag705
ag813
ag921
ag1029
ag129
ag273
ag417
ag525
ag633
ag741
ag849
ag957
ag57
asI19
(lp1139
g22
ag166
ag310
ag454
ag562
ag670
ag778
ag886
ag994
ag94
ag238
ag382
ag490
ag598
ag706
ag814
ag922
ag1030
ag130
ag274
ag418
ag526
ag634
ag742
ag850
ag958
ag58
asI20
(lp1140
g23
ag167
ag311
ag455
ag563
ag671
ag779
ag887
ag995
ag95
ag239
ag383
ag491
ag599
ag707
ag815
ag923
ag1031
ag131
ag275
ag419
ag527
ag635
ag743
ag851
ag959
ag59
asI21
(lp1141
g24
ag168
ag312
ag456
ag564
ag672
ag780
ag888
ag996
ag96
ag240
ag384
ag492
ag600
ag708
ag816
ag924
ag1032
ag132
ag276
ag420
ag528
ag636
ag744
ag852
ag960
ag60
asI22
(lp1142
g25
ag169
ag313
ag457
ag565
ag673
ag781
ag889
ag997
ag97
ag241
ag385
ag493
ag601
ag709
ag817
ag925
ag1033
ag133
ag277
ag421
ag529
ag637
ag745
ag853
ag961
ag61
asI23
(lp1143
g26
ag170
ag314
ag458
ag566
ag674
ag782
ag890
ag998
ag98
ag242
ag386
ag494
ag602
ag710
ag818
ag926
ag1034
ag134
ag278
ag422
ag530
ag638
ag746
ag854
ag962
ag62
asI24
(lp1144
g27
ag171
ag315
ag459
ag567
ag675
ag783
ag891
ag999
ag99
ag243
ag387
ag495
ag603
ag711
ag819
ag927
ag1035
ag135
ag279
ag423
ag531
ag639
ag747
ag855
ag963
ag63
asI25
(lp1145
g28
ag172
ag316
ag460
ag568
ag676
ag784
ag892
ag1000
ag100
ag244
ag388
ag496
ag604
ag712
ag820
ag928
ag1036
ag136
ag280
ag424
ag532
ag640
ag748
ag856
ag964
ag64
asI26
(lp1146
g29
ag173
ag317
ag461
ag569
ag677
ag785
ag893
ag1001
ag101
ag245
ag389
ag497
ag605
ag713
ag821
ag929
ag1037
ag137
ag281
ag425
ag533
ag641
ag749
ag857
ag965
ag65
asI27
(lp1147
g30
ag174
ag318
ag462
ag570
ag678
ag786
ag894
ag1002
ag102
ag246
ag390
ag498
ag606
ag714
ag822
ag930
ag1038
ag138
ag282
ag426
ag534
ag642
ag750
ag858
ag966
ag66
asI28
(lp1148
g31
ag175
ag319
ag463
ag571
ag679
ag787
ag895
ag1003
ag103
ag247
ag391
ag499
ag607
ag715
ag823
ag931
ag1039
ag139
ag283
ag427
ag535
ag643
ag751
ag859
ag967
ag67
asI29
(lp1149
g32
ag176
ag320
ag464
ag572
ag680
ag788
ag896
ag1004
ag104
ag248
ag392
ag500
ag608
ag716
ag824
ag932
ag1040
ag140
ag284
ag428
ag536
ag644
ag752
ag860
ag968
ag68
asI30
(lp1150
g33
ag177
ag321
ag465
ag573
ag681
ag789
ag897
ag1005
ag105
ag249
ag393
ag501
ag609
ag717
ag825
ag933
ag1041
ag141
ag285
ag429
ag537
ag645
ag753
ag861
ag969
ag69
asI31
(lp1151
g34
ag178
ag322
ag466
ag574
ag682
ag790
ag898
ag1006
ag106
ag250
ag394
ag502
ag610
ag718
ag826
ag934
ag1042
ag142
ag286
ag430
ag538
ag646
ag754
ag862
ag970
ag70
asI32
(lp1152
g35
ag179
ag323
ag467
ag575
ag683
ag791
ag899
ag1007
ag107
ag251
ag395
ag503
ag611
ag719
ag827
ag935
ag1043
ag143
ag287
ag431
ag539
ag647
ag755
ag863
ag971
ag71
asI33
(lp1153
g36
ag180
ag324
ag468
ag576
ag684
ag792
ag900
ag1008
ag108
ag252
ag396
ag504
ag612
ag720
ag828
ag936
ag1044
ag144
ag288
ag432
ag540
ag648
ag756
ag864
ag972
ag72
asI34
(lp1154
g37
ag181
ag325
ag469
ag577
ag685
ag793
ag901
ag1009
ag109
ag253
ag397
ag505
ag613
ag721
ag829
ag937
ag1045
ag145
ag289
ag433
ag541
ag649
ag757
ag865
ag973
ag73
assI135
(dp1155
I0
(lp1156
g3
ag147
ag291
ag435
ag543
ag651
ag759
ag867
ag975
ag75
asI1
(lp1157
g4
ag148
ag292
ag436
ag544
ag652
ag760
ag868
ag976
ag76
asI2
(lp1158
g5
ag149
ag293
ag437
ag545
ag653
ag761
ag869
ag977
ag77
asI3
(lp1159
g6
ag150
ag294
ag438
ag546
ag654
ag762
ag870
ag978
ag78
asI4
(lp1160
g7
ag151
ag295
ag439
ag547
ag655
ag763
ag871
ag979
ag79
asI5
(lp1161
g8
ag152
ag296
ag440
ag548
ag656
ag764
ag872
ag980
ag80
asI6
(lp1162
g9
ag153
ag297
ag441
ag549
ag657
ag765
ag873
ag981
ag81
asI7
(lp1163
g10
ag154
ag298
ag442
ag550
ag658
ag766
ag874
ag982
ag82
asI8
(lp1164
g11
ag155
ag299
ag443
ag551
ag659
ag767
ag875
ag983
ag83
asI9
(lp1165
g12
ag156
ag300
ag444
ag552
ag660
ag768
ag876
ag984
ag84
asI10
(lp1166
g13
ag157
ag301
ag445
ag553
ag661
ag769
ag877
ag985
ag85
asI11
(lp1167
g14
ag158
ag302
ag446
ag554
ag662
ag770
ag878
ag986
ag86
asI12
(lp1168
g15
ag159
ag303
ag447
ag555
ag663
ag771
ag879
ag987
ag87
asI13
(lp1169
g16
ag160
ag304
ag448
ag556
ag664
ag772
ag880
ag988
ag88
asI14
(lp1170
g17
ag161
ag305
ag449
ag557
ag665
ag773
ag881
ag989
ag89
asI15
(lp1171
g18
ag162
ag306
ag450
ag558
ag666
ag774
ag882
ag990
ag90
asI16
(lp1172
g19
ag163
ag307
ag451
ag559
ag667
ag775
ag883
ag991
ag91
asI17
(lp1173
g20
ag164
ag308
ag452
ag560
ag668
ag776
ag884
ag992
ag92
asI18
(lp1174
g21
ag165
ag309
ag453
ag561
ag669
ag777
ag885
ag993
ag93
asI19
(lp1175
g22
ag166
ag310
ag454
ag562
ag670
ag778
ag886
ag994
ag94
asI20
(lp1176
g23
ag167
ag311
ag455
ag563
ag671
ag779
ag887
ag995
ag95
asI21
(lp1177
g24
ag168
ag312
ag456
ag564
ag672
ag780
ag888
ag996
ag96
asI22
(lp1178
g25
ag169
ag313
ag457
ag565
ag673
ag781
ag889
ag997
ag97
asI23
(lp1179
g26
ag170
ag314
ag458
ag566
ag674
ag782
ag890
ag998
ag98
asI24
(lp1180
g27
ag171
ag315
ag459
ag567
ag675
ag783
ag891
ag999
ag99
asI25
(lp1181
g28
ag172
ag316
ag460
ag568
ag676
ag784
ag892
ag1000
ag100
asI26
(lp1182
g29
ag173
ag317
ag461
ag569
ag677
ag785
ag893
ag1001
ag101
asI27
(lp1183
g30
ag174
ag318
ag462
ag570
ag678
ag786
ag894
ag1002
ag102
asI28
(lp1184
g31
ag175
ag319
ag463
ag571
ag679
ag787
ag895
ag1003
ag103
asI29
(lp1185
g32
ag176
ag320
ag464
ag572
ag680
ag788
ag896
ag1004
ag104
asI30
(lp1186
g33
ag177
ag321
ag465
ag573
ag681
ag789
ag897
ag1005
ag105
asI31
(lp1187
g34
ag178
ag322
ag466
ag574
ag682
ag790
ag898
ag1006
ag106
asI32
(lp1188
g35
ag179
ag323
ag467
ag575
ag683
ag791
ag899
ag1007
ag107
asI33
(lp1189
g36
ag180
ag324
ag468
ag576
ag684
ag792
ag900
ag1008
ag108
asI34
(lp1190
g37
ag181
ag325
ag469
ag577
ag685
ag793
ag901
ag1009
ag109
assI270
(dp1191
I0
(lp1192
g3
ag147
ag291
ag435
ag543
ag651
ag759
ag867
ag975
ag75
ag219
ag363
ag471
ag579
ag687
ag795
ag903
ag1011
ag111
asI1
(lp1193
g4
ag148
ag292
ag436
ag544
ag652
ag760
ag868
ag976
ag76
ag220
ag364
ag472
ag580
ag688
ag796
ag904
ag1012
ag112
asI2
(lp1194
g5
ag149
ag293
ag437
ag545
ag653
ag761
ag869
ag977
ag77
ag221
ag365
ag473
ag581
ag689
ag797
ag905
ag1013
ag113
asI3
(lp1195
g6
ag150
ag294
ag438
ag546
ag654
ag762
ag870
ag978
ag78
ag222
ag366
ag474
ag582
ag690
ag798
ag906
ag1014
ag114
asI4
(lp1196
g7
ag151
ag295
ag439
ag547
ag655
ag763
ag871
ag979
ag79
ag223
ag367
ag475
ag583
ag691
ag799
ag907
ag1015
ag115
asI5
(lp1197
g8
ag152
ag296
ag440
ag548
ag656
ag764
ag872
ag980
ag80
ag224
ag368
ag476
ag584
ag692
ag800
ag908
ag1016
ag116
asI6
(lp1198
g9
ag153
ag297
ag441
ag549
ag657
ag765
ag873
ag981
ag81
ag225
ag369
ag477
ag585
ag693
ag801
ag909
ag1017
ag117
asI7
(lp1199
g10
ag154
ag298
ag442
ag550
ag658
ag766
ag874
ag982
ag82
ag226
ag370
ag478
ag586
ag694
ag802
ag910
ag1018
ag118
asI8
(lp1200
g11
ag155
ag299
ag443
ag551
ag659
ag767
ag875
ag983
ag83
ag227
ag371
ag479
ag587
ag695
ag803
ag911
ag1019
ag119
asI9
(lp1201
g12
ag156
ag300
ag444
ag552
ag660
ag768
ag876
ag984
ag84
ag228
ag372
ag480
ag588
ag696
ag804
ag912
ag1020
ag120
asI10
(lp1202
g13
ag157
ag301
ag445
ag553
ag661
ag769
ag877
ag985
ag85
ag229
ag373
ag481
ag589
ag697
ag805
ag913
ag1021
ag121
asI11
(lp1203
g14
ag158
ag302
ag446
ag554
ag662
ag770
ag878
ag986
ag86
ag230
ag374
ag482
ag590
ag698
ag806
ag914
ag1022
ag122
asI12
(lp1204
g15
ag159
ag303
ag447
ag555
ag663
ag771
ag879
ag987
ag87
ag231
ag375
ag483
ag591
ag699
ag807
ag915
ag1023
ag123
asI13
(lp1205
g16
ag160
ag304
ag448
ag556
ag664
ag772
ag880
ag988
ag88
ag232
ag376
ag484
ag592
ag700
ag808
ag916
ag1024
ag124
asI14
(lp1206
g17
ag161
ag305
ag449
ag557
ag665
ag773
ag881
ag989
ag89
ag233
ag377
ag485
ag593
ag701
ag809
ag917
ag1025
ag125
asI15
(lp1207
g18
ag162
ag306
ag450
ag558
ag666
ag774
ag882
ag990
ag90
ag234
ag378
ag486
ag594
ag702
ag810
ag918
ag1026
ag126
asI16
(lp1208
g19
ag163
ag307
ag451
ag559
ag667
ag775
ag883
ag991
ag91
ag235
ag379
ag487
ag595
ag703
ag811
ag919
ag1027
ag127
asI17
(lp1209
g20
ag164
ag308
ag452
ag560
ag668
ag776
ag884
ag992
ag92
ag236
ag380
ag488
ag596
ag704
ag812
ag920
ag1028
ag128
asI18
(lp1210
g21
ag165
ag309
ag453
ag561
ag669
ag777
ag885
ag993
ag93
ag237
ag381
ag489
ag597
ag705
ag813
ag921
ag1029
ag129
asI19
(lp1211
g22
ag166
ag310
ag454
ag562
ag670
ag778
ag886
ag994
ag94
ag238
ag382
ag490
ag598
ag706
ag814
ag922
ag1030
ag130
asI20
(lp1212
g23
ag167
ag311
ag455
ag563
ag671
ag779
ag887
ag995
ag95
ag239
ag383
ag491
ag599
ag707
ag815
ag923
ag1031
ag131
asI21
(lp1213
g24
ag168
ag312
ag456
ag564
ag672
ag780
ag888
ag996
ag96
ag240
ag384
ag492
ag600
ag708
ag816
ag924
ag1032
ag132
asI22
(lp1214
g25
ag169
ag313
ag457
ag565
ag673
ag781
ag889
ag997
ag97
ag241
ag385
ag493
ag601
ag709
ag817
ag925
ag1033
ag133
asI23
(lp1215
g26
ag170
ag314
ag458
ag566
ag674
ag782
ag890
ag998
ag98
ag242
ag386
ag494
ag602
ag710
ag818
ag926
ag1034
ag134
asI24
(lp1216
g27
ag171
ag315
ag459
ag567
ag675
ag783
ag891
ag999
ag99
ag243
ag387
ag495
ag603
ag711
ag819
ag927
ag1035
ag135
asI25
(lp1217
g28
ag172
ag316
ag460
ag568
ag676
ag784
ag892
ag1000
ag100
ag244
ag388
ag496
ag604
ag712
ag820
ag928
ag1036
ag136
asI26
(lp1218
g29
ag173
ag317
ag461
ag569
ag677
ag785
ag893
ag1001
ag101
ag245
ag389
ag497
ag605
ag713
ag821
ag929
ag1037
ag137
asI27
(lp1219
g30
ag174
ag318
ag462
ag570
ag678
ag786
ag894
ag1002
ag102
ag246
ag390
ag498
ag606
ag714
ag822
ag930
ag1038
ag138
asI28
(lp1220
g31
ag175
ag319
ag463
ag571
ag679
ag787
ag895
ag1003
ag103
ag247
ag391
ag499
ag607
ag715
ag823
ag931
ag1039
ag139
asI29
(lp1221
g32
ag176
ag320
ag464
ag572
ag680
ag788
ag896
ag1004
ag104
ag248
ag392
ag500
ag608
ag716
ag824
ag932
ag1040
ag140
asI30
(lp1222
g33
ag177
ag321
ag465
ag573
ag681
ag789
ag897
ag1005
ag105
ag249
ag393
ag501
ag609
ag717
ag825
ag933
ag1041
ag141
asI31
(lp1223
g34
ag178
ag322
ag466
ag574
ag682
ag790
ag898
ag1006
ag106
ag250
ag394
ag502
ag610
ag718
ag826
ag934
ag1042
ag142
asI32
(lp1224
g35
ag179
ag323
ag467
ag575
ag683
ag791
ag899
ag1007
ag107
ag251
ag395
ag503
ag611
ag719
ag827
ag935
ag1043
ag143
asI33
(lp1225
g36
ag180
ag324
ag468
ag576
ag684
ag792
ag900
ag1008
ag108
ag252
ag396
ag504
ag612
ag720
ag828
ag936
ag1044
ag144
asI34
(lp1226
g37
ag181
ag325
ag469
ag577
ag685
ag793
ag901
ag1009
ag109
ag253
ag397
ag505
ag613
ag721
ag829
ag937
ag1045
ag145
assI15
(dp1227
I0
(lp1228
g3
ag147
asI1
(lp1229
g4
ag148
asI2
(lp1230
g5
ag149
asI3
(lp1231
g6
ag150
asI4
(lp1232
g7
ag151
asI5
(lp1233
g8
ag152
asI6
(lp1234
g9
ag153
asI7
(lp1235
g10
ag154
asI8
(lp1236
g11
ag155
asI9
(lp1237
g12
ag156
asI10
(lp1238
g13
ag157
asI11
(lp1239
g14
ag158
asI12
(lp1240
g15
ag159
asI13
(lp1241
g16
ag160
asI14
(lp1242
g17
ag161
asI15
(lp1243
g18
ag162
asI16
(lp1244
g19
ag163
asI17
(lp1245
g20
ag164
asI18
(lp1246
g21
ag165
asI19
(lp1247
g22
ag166
asI20
(lp1248
g23
ag167
asI21
(lp1249
g24
ag168
asI22
(lp1250
g25
ag169
asI23
(lp1251
g26
ag170
asI24
(lp1252
g27
ag171
asI25
(lp1253
g28
ag172
asI26
(lp1254
g29
ag173
asI27
(lp1255
g30
ag174
asI28
(lp1256
g31
ag175
asI29
(lp1257
g32
ag176
asI30
(lp1258
g33
ag177
asI31
(lp1259
g34
ag178
asI32
(lp1260
g35
ag179
asI33
(lp1261
g36
ag180
asI34
(lp1262
g37
ag181
assI405
(dp1263
I0
(lp1264
g3
ag147
ag291
ag435
ag543
ag651
ag759
ag867
ag975
ag75
ag219
ag363
ag471
ag579
ag687
ag795
ag903
ag1011
ag111
ag255
ag399
ag507
ag615
ag723
ag831
ag939
ag39
ag183
asI1
(lp1265
g4
ag148
ag292
ag436
ag544
ag652
ag760
ag868
ag976
ag76
ag220
ag364
ag472
ag580
ag688
ag796
ag904
ag1012
ag112
ag256
ag400
ag508
ag616
ag724
ag832
ag940
ag40
ag184
asI2
(lp1266
g5
ag149
ag293
ag437
ag545
ag653
ag761
ag869
ag977
ag77
ag221
ag365
ag473
ag581
ag689
ag797
ag905
ag1013
ag113
ag257
ag401
ag509
ag617
ag725
ag833
ag941
ag41
ag185
asI3
(lp1267
g6
ag150
ag294
ag438
ag546
ag654
ag762
ag870
ag978
ag78
ag222
ag366
ag474
ag582
ag690
ag798
ag906
ag1014
ag114
ag258
ag402
ag510
ag618
ag726
ag834
ag942
ag42
ag186
asI4
(lp1268
g7
ag151
ag295
ag439
ag547
ag655
ag763
ag871
ag979
ag79
ag223
ag367
ag475
ag583
ag691
ag799
ag907
ag1015
ag115
ag259
ag403
ag511
ag619
ag727
ag835
ag943
ag43
ag187
asI5
(lp1269
g8
ag152
ag296
ag440
ag548
ag656
ag764
ag872
ag980
ag80
ag224
ag368
ag476
ag584
ag692
ag800
ag908
ag1016
ag116
ag260
ag404
ag512
ag620
ag728
ag836
ag944
ag44
ag188
asI6
(lp1270
g9
ag153
ag297
ag441
ag549
ag657
ag765
ag873
ag981
ag81
ag225
ag369
ag477
ag585
ag693
ag801
ag909
ag1017
ag117
ag261
ag405
ag513
ag621
ag729
ag837
ag945
ag45
ag189
asI7
(lp1271
g10
ag154
ag298
ag442
ag550
ag658
ag766
ag874
ag982
ag82
ag226
ag370
ag478
ag586
ag694
ag802
ag910
ag1018
ag118
ag262
ag406
ag514
ag622
ag730
ag838
ag946
ag46
ag190
asI8
(lp1272
g11
ag155
ag299
ag443
ag551
ag659
ag767
ag875
ag983
ag83
ag227
ag371
ag479
ag587
ag695
ag803
ag911
ag1019
ag119
ag263
ag407
ag515
ag623
ag731
ag839
ag947
ag47
ag191
asI9
(lp1273
g12
ag156
ag300
ag444
ag552
ag660
ag768
ag876
ag984
ag84
ag228
ag372
ag480
ag588
ag696
ag804
ag912
ag1020
ag120
ag264
ag408
ag516
ag624
ag732
ag840
ag948
ag48
ag192
asI10
(lp1274
g13
ag157
ag301
ag445
ag553
ag661
ag769
ag877
ag985
ag85
ag229
ag373
ag481
ag589
ag697
ag805
ag913
ag1021
ag121
ag265
ag409
ag517
ag625
ag733
ag841
ag949
ag49
ag193
asI11
(lp1275
g14
ag158
ag302
ag446
ag554
ag662
ag770
ag878
ag986
ag86
ag230
ag374
ag482
ag590
ag698
ag806
ag914
ag1022
ag122
ag266
ag410
ag518
ag626
ag734
ag842
ag950
ag50
ag194
asI12
(lp1276
g15
ag159
ag303
ag447
ag555
ag663
ag771
ag879
ag987
ag87
ag231
ag375
ag483
ag591
ag699
ag807
ag915
ag1023
ag123
ag267
ag411
ag519
ag627
ag735
ag843
ag951
ag51
ag195
asI13
(lp1277
g16
ag160
ag304
ag448
ag556
ag664
ag772
ag880
ag988
ag88
ag232
ag376
ag484
ag592
ag700
ag808
ag916
ag1024
ag124
ag268
ag412
ag520
ag628
ag736
ag844
ag952
ag52
ag196
asI14
(lp1278
g17
ag161
ag305
ag449
ag557
ag665
ag773
ag881
ag989
ag89
ag233
ag377
ag485
ag593
ag701
ag809
ag917
ag1025
ag125
ag269
ag413
ag521
ag629
ag737
ag845
ag953
ag53
ag197
asI15
(lp1279
g18
ag162
ag306
ag450
ag558
ag666
ag774
ag882
ag990
ag90
ag234
ag378
ag486
ag594
ag702
ag810
ag918
ag1026
ag126
ag270
ag414
ag522
ag630
ag738
ag846
ag954
ag54
ag198
asI16
(lp1280
g19
ag163
ag307
ag451
ag559
ag667
ag775
ag883
ag991
ag91
ag235
ag379
ag487
ag595
ag703
ag811
ag919
ag1027
ag127
ag271
ag415
ag523
ag631
ag739
ag847
ag955
ag55
ag199
asI17
(lp1281
g20
ag164
ag308
ag452
ag560
ag668
ag776
ag884
ag992
ag92
ag236
ag380
ag488
ag596
ag704
ag812
ag920
ag1028
ag128
ag272
ag416
ag524
ag632
ag740
ag848
ag956
ag56
ag200
asI18
(lp1282
g21
ag165
ag309
ag453
ag561
ag669
ag777
ag885
ag993
ag93
ag237
ag381
ag489
ag597
ag705
ag813
ag921
ag1029
ag129
ag273
ag417
ag525
ag633
ag741
ag849
ag957
ag57
ag201
asI19
(lp1283
g22
ag166
ag310
ag454
ag562
ag670
ag778
ag886
ag994
ag94
ag238
ag382
ag490
ag598
ag706
ag814
ag922
ag1030
ag130
ag274
ag418
ag526
ag634
ag742
ag850
ag958
ag58
ag202
asI20
(lp1284
g23
ag167
ag311
ag455
ag563
ag671
ag779
ag887
ag995
ag95
ag239
ag383
ag491
ag599
ag707
ag815
ag923
ag1031
ag131
ag275
ag419
ag527
ag635
ag743
ag851
ag959
ag59
ag203
asI21
(lp1285
g24
ag168
ag312
ag456
ag564
ag672
ag780
ag888
ag996
ag96
ag240
ag384
ag492
ag600
ag708
ag816
ag924
ag1032
ag132
ag276
ag420
ag528
ag636
ag744
ag852
ag960
ag60
ag204
asI22
(lp1286
g25
ag169
ag313
ag457
ag565
ag673
ag781
ag889
ag997
ag97
ag241
ag385
ag493
ag601
ag709
ag817
ag925
ag1033
ag133
ag277
ag421
ag529
ag637
ag745
ag853
ag961
ag61
ag205
asI23
(lp1287
g26
ag170
ag314
ag458
ag566
ag674
ag782
ag890
ag998
ag98
ag242
ag386
ag494
ag602
ag710
ag818
ag926
ag1034
ag134
ag278
ag422
ag530
ag638
ag746
ag854
ag962
ag62
ag206
asI24
(lp1288
g27
ag171
ag315
ag459
ag567
ag675
ag783
ag891
ag999
ag99
ag243
ag387
ag495
ag603
ag711
ag819
ag927
ag1035
ag135
ag279
ag423
ag531
ag639
ag747
ag855
ag963
ag63
ag207
asI25
(lp1289
g28
ag172
ag316
ag460
ag568
ag676
ag784
ag892
ag1000
ag100
ag244
ag388
ag496
ag604
ag712
ag820
ag928
ag1036
ag136
ag280
ag424
ag532
ag640
ag748
ag856
ag964
ag64
ag208
asI26
(lp1290
g29
ag173
ag317
ag461
ag569
ag677
ag785
ag893
ag1001
ag101
ag245
ag389
ag497
ag605
ag713
ag821
ag929
ag1037
ag137
ag281
ag425
ag533
ag641
ag749
ag857
ag965
ag65
ag209
asI27
(lp1291
g30
ag174
ag318
ag462
ag570
ag678
ag786
ag894
ag1002
ag102
ag246
ag390
ag498
ag606
ag714
ag822
ag930
ag1038
ag138
ag282
ag426
ag534
ag642
ag750
ag858
ag966
ag66
ag210
asI28
(lp1292
g31
ag175
ag319
ag463
ag571
ag679
ag787
ag895
ag1003
ag103
ag247
ag391
ag499
ag607
ag715
ag823
ag931
ag1039
ag139
ag283
ag427
ag535
ag643
ag751
ag859
ag967
ag67
ag211
asI29
(lp1293
g32
ag176
ag320
ag464
ag572
ag680
ag788
ag896
ag1004
ag104
ag248
ag392
ag500
ag608
ag716
ag824
ag932
ag1040
ag140
ag284
ag428
ag536
ag644
ag752
ag860
ag968
ag68
ag212
asI30
(lp1294
g33
ag177
ag321
ag465
ag573
ag681
ag789
ag897
ag1005
ag105
ag249
ag393
ag501
ag609
ag717
ag825
ag933
ag1041
ag141
ag285
ag429
ag537
ag645
ag753
ag861
ag969
ag69
ag213
asI31
(lp1295
g34
ag178
ag322
ag466
ag574
ag682
ag790
ag898
ag1006
ag106
ag250
ag394
ag502
ag610
ag718
ag826
ag934
ag1042
ag142
ag286
ag430
ag538
ag646
ag754
ag862
ag970
ag70
ag214
asI32
(lp1296
g35
ag179
ag323
ag467
ag575
ag683
ag791
ag899
ag1007
ag107
ag251
ag395
ag503
ag611
ag719
ag827
ag935
ag1043
ag143
ag287
ag431
ag539
ag647
ag755
ag863
ag971
ag71
ag215
asI33
(lp1297
g36
ag180
ag324
ag468
ag576
ag684
ag792
ag900
ag1008
ag108
ag252
ag396
ag504
ag612
ag720
ag828
ag936
ag1044
ag144
ag288
ag432
ag540
ag648
ag756
ag864
ag972
ag72
ag216
asI34
(lp1298
g37
ag181
ag325
ag469
ag577
ag685
ag793
ag901
ag1009
ag109
ag253
ag397
ag505
ag613
ag721
ag829
ag937
ag1045
ag145
ag289
ag433
ag541
ag649
ag757
ag865
ag973
ag73
ag217
assI150
(dp1299
I0
(lp1300
g3
ag147
ag291
ag435
ag543
ag651
ag759
ag867
ag975
ag75
ag219
asI1
(lp1301
g4
ag148
ag292
ag436
ag544
ag652
ag760
ag868
ag976
ag76
ag220
asI2
(lp1302
g5
ag149
ag293
ag437
ag545
ag653
ag761
ag869
ag977
ag77
ag221
asI3
(lp1303
g6
ag150
ag294
ag438
ag546
ag654
ag762
ag870
ag978
ag78
ag222
asI4
(lp1304
g7
ag151
ag295
ag439
ag547
ag655
ag763
ag871
ag979
ag79
ag223
asI5
(lp1305
g8
ag152
ag296
ag440
ag548
ag656
ag764
ag872
ag980
ag80
ag224
asI6
(lp1306
g9
ag153
ag297
ag441
ag549
ag657
ag765
ag873
ag981
ag81
ag225
asI7
(lp1307
g10
ag154
ag298
ag442
ag550
ag658
ag766
ag874
ag982
ag82
ag226
asI8
(lp1308
g11
ag155
ag299
ag443
ag551
ag659
ag767
ag875
ag983
ag83
ag227
asI9
(lp1309
g12
ag156
ag300
ag444
ag552
ag660
ag768
ag876
ag984
ag84
ag228
asI10
(lp1310
g13
ag157
ag301
ag445
ag553
ag661
ag769
ag877
ag985
ag85
ag229
asI11
(lp1311
g14
ag158
ag302
ag446
ag554
ag662
ag770
ag878
ag986
ag86
ag230
asI12
(lp1312
g15
ag159
ag303
ag447
ag555
ag663
ag771
ag879
ag987
ag87
ag231
asI13
(lp1313
g16
ag160
ag304
ag448
ag556
ag664
ag772
ag880
ag988
ag88
ag232
asI14
(lp1314
g17
ag161
ag305
ag449
ag557
ag665
ag773
ag881
ag989
ag89
ag233
asI15
(lp1315
g18
ag162
ag306
ag450
ag558
ag666
ag774
ag882
ag990
ag90
ag234
asI16
(lp1316
g19
ag163
ag307
ag451
ag559
ag667
ag775
ag883
ag991
ag91
ag235
asI17
(lp1317
g20
ag164
ag308
ag452
ag560
ag668
ag776
ag884
ag992
ag92
ag236
asI18
(lp1318
g21
ag165
ag309
ag453
ag561
ag669
ag777
ag885
ag993
ag93
ag237
asI19
(lp1319
g22
ag166
ag310
ag454
ag562
ag670
ag778
ag886
ag994
ag94
ag238
asI20
(lp1320
g23
ag167
ag311
ag455
ag563
ag671
ag779
ag887
ag995
ag95
ag239
asI21
(lp1321
g24
ag168
ag312
ag456
ag564
ag672
ag780
ag888
ag996
ag96
ag240
asI22
(lp1322
g25
ag169
ag313
ag457
ag565
ag673
ag781
ag889
ag997
ag97
ag241
asI23
(lp1323
g26
ag170
ag314
ag458
ag566
ag674
ag782
ag890
ag998
ag98
ag242
asI24
(lp1324
g27
ag171
ag315
ag459
ag567
ag675
ag783
ag891
ag999
ag99
ag243
asI25
(lp1325
g28
ag172
ag316
ag460
ag568
ag676
ag784
ag892
ag1000
ag100
ag244
asI26
(lp1326
g29
ag173
ag317
ag461
ag569
ag677
ag785
ag893
ag1001
ag101
ag245
asI27
(lp1327
g30
ag174
ag318
ag462
ag570
ag678
ag786
ag894
ag1002
ag102
ag246
asI28
(lp1328
g31
ag175
ag319
ag463
ag571
ag679
ag787
ag895
ag1003
ag103
ag247
asI29
(lp1329
g32
ag176
ag320
ag464
ag572
ag680
ag788
ag896
ag1004
ag104
ag248
asI30
(lp1330
g33
ag177
ag321
ag465
ag573
ag681
ag789
ag897
ag1005
ag105
ag249
asI31
(lp1331
g34
ag178
ag322
ag466
ag574
ag682
ag790
ag898
ag1006
ag106
ag250
asI32
(lp1332
g35
ag179
ag323
ag467
ag575
ag683
ag791
ag899
ag1007
ag107
ag251
asI33
(lp1333
g36
ag180
ag324
ag468
ag576
ag684
ag792
ag900
ag1008
ag108
ag252
asI34
(lp1334
g37
ag181
ag325
ag469
ag577
ag685
ag793
ag901
ag1009
ag109
ag253
assI285
(dp1335
I0
(lp1336
g3
ag147
ag291
ag435
ag543
ag651
ag759
ag867
ag975
ag75
ag219
ag363
ag471
ag579
ag687
ag795
ag903
ag1011
ag111
ag255
asI1
(lp1337
g4
ag148
ag292
ag436
ag544
ag652
ag760
ag868
ag976
ag76
ag220
ag364
ag472
ag580
ag688
ag796
ag904
ag1012
ag112
ag256
asI2
(lp1338
g5
ag149
ag293
ag437
ag545
ag653
ag761
ag869
ag977
ag77
ag221
ag365
ag473
ag581
ag689
ag797
ag905
ag1013
ag113
ag257
asI3
(lp1339
g6
ag150
ag294
ag438
ag546
ag654
ag762
ag870
ag978
ag78
ag222
ag366
ag474
ag582
ag690
ag798
ag906
ag1014
ag114
ag258
asI4
(lp1340
g7
ag151
ag295
ag439
ag547
ag655
ag763
ag871
ag979
ag79
ag223
ag367
ag475
ag583
ag691
ag799
ag907
ag1015
ag115
ag259
asI5
(lp1341
g8
ag152
ag296
ag440
ag548
ag656
ag764
ag872
ag980
ag80
ag224
ag368
ag476
ag584
ag692
ag800
ag908
ag1016
ag116
ag260
asI6
(lp1342
g9
ag153
ag297
ag441
ag549
ag657
ag765
ag873
ag981
ag81
ag225
ag369
ag477
ag585
ag693
ag801
ag909
ag1017
ag117
ag261
asI7
(lp1343
g10
ag154
ag298
ag442
ag550
ag658
ag766
ag874
ag982
ag82
ag226
ag370
ag478
ag586
ag694
ag802
ag910
ag1018
ag118
ag262
asI8
(lp1344
g11
ag155
ag299
ag443
ag551
ag659
ag767
ag875
ag983
ag83
ag227
ag371
ag479
ag587
ag695
ag803
ag911
ag1019
ag119
ag263
asI9
(lp1345
g12
ag156
ag300
ag444
ag552
ag660
ag768
ag876
ag984
ag84
ag228
ag372
ag480
ag588
ag696
ag804
ag912
ag1020
ag120
ag264
asI10
(lp1346
g13
ag157
ag301
ag445
ag553
ag661
ag769
ag877
ag985
ag85
ag229
ag373
ag481
ag589
ag697
ag805
ag913
ag1021
ag121
ag265
asI11
(lp1347
g14
ag158
ag302
ag446
ag554
ag662
ag770
ag878
ag986
ag86
ag230
ag374
ag482
ag590
ag698
ag806
ag914
ag1022
ag122
ag266
asI12
(lp1348
g15
ag159
ag303
ag447
ag555
ag663
ag771
ag879
ag987
ag87
ag231
ag375
ag483
ag591
ag699
ag807
ag915
ag1023
ag123
ag267
asI13
(lp1349
g16
ag160
ag304
ag448
ag556
ag664
ag772
ag880
ag988
ag88
ag232
ag376
ag484
ag592
ag700
ag808
ag916
ag1024
ag124
ag268
asI14
(lp1350
g17
ag161
ag305
ag449
ag557
ag665
ag773
ag881
ag989
ag89
ag233
ag377
ag485
ag593
ag701
ag809
ag917
ag1025
ag125
ag269
asI15
(lp1351
g18
ag162
ag306
ag450
ag558
ag666
ag774
ag882
ag990
ag90
ag234
ag378
ag486
ag594
ag702
ag810
ag918
ag1026
ag126
ag270
asI16
(lp1352
g19
ag163
ag307
ag451
ag559
ag667
ag775
ag883
ag991
ag91
ag235
ag379
ag487
ag595
ag703
ag811
ag919
ag1027
ag127
ag271
asI17
(lp1353
g20
ag164
ag308
ag452
ag560
ag668
ag776
ag884
ag992
ag92
ag236
ag380
ag488
ag596
ag704
ag812
ag920
ag1028
ag128
ag272
asI18
(lp1354
g21
ag165
ag309
ag453
ag561
ag669
ag777
ag885
ag993
ag93
ag237
ag381
ag489
ag597
ag705
ag813
ag921
ag1029
ag129
ag273
asI19
(lp1355
g22
ag166
ag310
ag454
ag562
ag670
ag778
ag886
ag994
ag94
ag238
ag382
ag490
ag598
ag706
ag814
ag922
ag1030
ag130
ag274
asI20
(lp1356
g23
ag167
ag311
ag455
ag563
ag671
ag779
ag887
ag995
ag95
ag239
ag383
ag491
ag599
ag707
ag815
ag923
ag1031
ag131
ag275
asI21
(lp1357
g24
ag168
ag312
ag456
ag564
ag672
ag780
ag888
ag996
ag96
ag240
ag384
ag492
ag600
ag708
ag816
ag924
ag1032
ag132
ag276
asI22
(lp1358
g25
ag169
ag313
ag457
ag565
ag673
ag781
ag889
ag997
ag97
ag241
ag385
ag493
ag601
ag709
ag817
ag925
ag1033
ag133
ag277
asI23
(lp1359
g26
ag170
ag314
ag458
ag566
ag674
ag782
ag890
ag998
ag98
ag242
ag386
ag494
ag602
ag710
ag818
ag926
ag1034
ag134
ag278
asI24
(lp1360
g27
ag171
ag315
ag459
ag567
ag675
ag783
ag891
ag999
ag99
ag243
ag387
ag495
ag603
ag711
ag819
ag927
ag1035
ag135
ag279
asI25
(lp1361
g28
ag172
ag316
ag460
ag568
ag676
ag784
ag892
ag1000
ag100
ag244
ag388
ag496
ag604
ag712
ag820
ag928
ag1036
ag136
ag280
asI26
(lp1362
g29
ag173
ag317
ag461
ag569
ag677
ag785
ag893
ag1001
ag101
ag245
ag389
ag497
ag605
ag713
ag821
ag929
ag1037
ag137
ag281
asI27
(lp1363
g30
ag174
ag318
ag462
ag570
ag678
ag786
ag894
ag1002
ag102
ag246
ag390
ag498
ag606
ag714
ag822
ag930
ag1038
ag138
ag282
asI28
(lp1364
g31
ag175
ag319
ag463
ag571
ag679
ag787
ag895
ag1003
ag103
ag247
ag391
ag499
ag607
ag715
ag823
ag931
ag1039
ag139
ag283
asI29
(lp1365
g32
ag176
ag320
ag464
ag572
ag680
ag788
ag896
ag1004
ag104
ag248
ag392
ag500
ag608
ag716
ag824
ag932
ag1040
ag140
ag284
asI30
(lp1366
g33
ag177
ag321
ag465
ag573
ag681
ag789
ag897
ag1005
ag105
ag249
ag393
ag501
ag609
ag717
ag825
ag933
ag1041
ag141
ag285
asI31
(lp1367
g34
ag178
ag322
ag466
ag574
ag682
ag790
ag898
ag1006
ag106
ag250
ag394
ag502
ag610
ag718
ag826
ag934
ag1042
ag142
ag286
asI32
(lp1368
g35
ag179
ag323
ag467
ag575
ag683
ag791
ag899
ag1007
ag107
ag251
ag395
ag503
ag611
ag719
ag827
ag935
ag1043
ag143
ag287
asI33
(lp1369
g36
ag180
ag324
ag468
ag576
ag684
ag792
ag900
ag1008
ag108
ag252
ag396
ag504
ag612
ag720
ag828
ag936
ag1044
ag144
ag288
asI34
(lp1370
g37
ag181
ag325
ag469
ag577
ag685
ag793
ag901
ag1009
ag109
ag253
ag397
ag505
ag613
ag721
ag829
ag937
ag1045
ag145
ag289
assI30
(dp1371
I0
(lp1372
g3
ag147
ag291
asI1
(lp1373
g4
ag148
ag292
asI2
(lp1374
g5
ag149
ag293
asI3
(lp1375
g6
ag150
ag294
asI4
(lp1376
g7
ag151
ag295
asI5
(lp1377
g8
ag152
ag296
asI6
(lp1378
g9
ag153
ag297
asI7
(lp1379
g10
ag154
ag298
asI8
(lp1380
g11
ag155
ag299
asI9
(lp1381
g12
ag156
ag300
asI10
(lp1382
g13
ag157
ag301
asI11
(lp1383
g14
ag158
ag302
asI12
(lp1384
g15
ag159
ag303
asI13
(lp1385
g16
ag160
ag304
asI14
(lp1386
g17
ag161
ag305
asI15
(lp1387
g18
ag162
ag306
asI16
(lp1388
g19
ag163
ag307
asI17
(lp1389
g20
ag164
ag308
asI18
(lp1390
g21
ag165
ag309
asI19
(lp1391
g22
ag166
ag310
asI20
(lp1392
g23
ag167
ag311
asI21
(lp1393
g24
ag168
ag312
asI22
(lp1394
g25
ag169
ag313
asI23
(lp1395
g26
ag170
ag314
asI24
(lp1396
g27
ag171
ag315
asI25
(lp1397
g28
ag172
ag316
asI26
(lp1398
g29
ag173
ag317
asI27
(lp1399
g30
ag174
ag318
asI28
(lp1400
g31
ag175
ag319
asI29
(lp1401
g32
ag176
ag320
asI30
(lp1402
g33
ag177
ag321
asI31
(lp1403
g34
ag178
ag322
asI32
(lp1404
g35
ag179
ag323
asI33
(lp1405
g36
ag180
ag324
asI34
(lp1406
g37
ag181
ag325
assI420
(dp1407
I0
(lp1408
g3
ag147
ag291
ag435
ag543
ag651
ag759
ag867
ag975
ag75
ag219
ag363
ag471
ag579
ag687
ag795
ag903
ag1011
ag111
ag255
ag399
ag507
ag615
ag723
ag831
ag939
ag39
ag183
ag327
asI1
(lp1409
g4
ag148
ag292
ag436
ag544
ag652
ag760
ag868
ag976
ag76
ag220
ag364
ag472
ag580
ag688
ag796
ag904
ag1012
ag112
ag256
ag400
ag508
ag616
ag724
ag832
ag940
ag40
ag184
ag328
asI2
(lp1410
g5
ag149
ag293
ag437
ag545
ag653
ag761
ag869
ag977
ag77
ag221
ag365
ag473
ag581
ag689
ag797
ag905
ag1013
ag113
ag257
ag401
ag509
ag617
ag725
ag833
ag941
ag41
ag185
ag329
asI3
(lp1411
g6
ag150
ag294
ag438
ag546
ag654
ag762
ag870
ag978
ag78
ag222
ag366
ag474
ag582
ag690
ag798
ag906
ag1014
ag114
ag258
ag402
ag510
ag618
ag726
ag834
ag942
ag42
ag186
ag330
asI4
(lp1412
g7
ag151
ag295
ag439
ag547
ag655
ag763
ag871
ag979
ag79
ag223
ag367
ag475
ag583
ag691
ag799
ag907
ag1015
ag115
ag259
ag403
ag511
ag619
ag727
ag835
ag943
ag43
ag187
ag331
asI5
(lp1413
g8
ag152
ag296
ag440
ag548
ag656
ag764
ag872
ag980
ag80
ag224
ag368
ag476
ag584
ag692
ag800
ag908
ag1016
ag116
ag260
ag404
ag512
ag620
ag728
ag836
ag944
ag44
ag188
ag332
asI6
(lp1414
g9
ag153
ag297
ag441
ag549
ag657
ag765
ag873
ag981
ag81
ag225
ag369
ag477
ag585
ag693
ag801
ag909
ag1017
ag117
ag261
ag405
ag513
ag621
ag729
ag837
ag945
ag45
ag189
ag333
asI7
(lp1415
g10
ag154
ag298
ag442
ag550
ag658
ag766
ag874
ag982
ag82
ag226
ag370
ag478
ag586
ag694
ag802
ag910
ag1018
ag118
ag262
ag406
ag514
ag622
ag730
ag838
ag946
ag46
ag190
ag334
asI8
(lp1416
g11
ag155
ag299
ag443
ag551
ag659
ag767
ag875
ag983
ag83
ag227
ag371
ag479
ag587
ag695
ag803
ag911
ag1019
ag119
ag263
ag407
ag515
ag623
ag731
ag839
ag947
ag47
ag191
ag335
asI9
(lp1417
g12
ag156
ag300
ag444
ag552
ag660
ag768
ag876
ag984
ag84
ag228
ag372
ag480
ag588
ag696
ag804
ag912
ag1020
ag120
ag264
ag408
ag516
ag624
ag732
ag840
ag948
ag48
ag192
ag336
asI10
(lp1418
g13
ag157
ag301
ag445
ag553
ag661
ag769
ag877
ag985
ag85
ag229
ag373
ag481
ag589
ag697
ag805
ag913
ag1021
ag121
ag265
ag409
ag517
ag625
ag733
ag841
ag949
ag49
ag193
ag337
asI11
(lp1419
g14
ag158
ag302
ag446
ag554
ag662
ag770
ag878
ag986
ag86
ag230
ag374
ag482
ag590
ag698
ag806
ag914
ag1022
ag122
ag266
ag410
ag518
ag626
ag734
ag842
ag950
ag50
ag194
ag338
asI12
(lp1420
g15
ag159
ag303
ag447
ag555
ag663
ag771
ag879
ag987
ag87
ag231
ag375
ag483
ag591
ag699
ag807
ag915
ag1023
ag123
ag267
ag411
ag519
ag627
ag735
ag843
ag951
ag51
ag195
ag339
asI13
(lp1421
g16
ag160
ag304
ag448
ag556
ag664
ag772
ag880
ag988
ag88
ag232
ag376
ag484
ag592
ag700
ag808
ag916
ag1024
ag124
ag268
ag412
ag520
ag628
ag736
ag844
ag952
ag52
ag196
ag340
asI14
(lp1422
g17
ag161
ag305
ag449
ag557
ag665
ag773
ag881
ag989
ag89
ag233
ag377
ag485
ag593
ag701
ag809
ag917
ag1025
ag125
ag269
ag413
ag521
ag629
ag737
ag845
ag953
ag53
ag197
ag341
asI15
(lp1423
g18
ag162
ag306
ag450
ag558
ag666
ag774
ag882
ag990
ag90
ag234
ag378
ag486
ag594
ag702
ag810
ag918
ag1026
ag126
ag270
ag414
ag522
ag630
ag738
ag846
ag954
ag54
ag198
ag342
asI16
(lp1424
g19
ag163
ag307
ag451
ag559
ag667
ag775
ag883
ag991
ag91
ag235
ag379
ag487
ag595
ag703
ag811
ag919
ag1027
ag127
ag271
ag415
ag523
ag631
ag739
ag847
ag955
ag55
ag199
ag343
asI17
(lp1425
g20
ag164
ag308
ag452
ag560
ag668
ag776
ag884
ag992
ag92
ag236
ag380
ag488
ag596
ag704
ag812
ag920
ag1028
ag128
ag272
ag416
ag524
ag632
ag740
ag848
ag956
ag56
ag200
ag344
asI18
(lp1426
g21
ag165
ag309
ag453
ag561
ag669
ag777
ag885
ag993
ag93
ag237
ag381
ag489
ag597
ag705
ag813
ag921
ag1029
ag129
ag273
ag417
ag525
ag633
ag741
ag849
ag957
ag57
ag201
ag345
asI19
(lp1427
g22
ag166
ag310
ag454
ag562
ag670
ag778
ag886
ag994
ag94
ag238
ag382
ag490
ag598
ag706
ag814
ag922
ag1030
ag130
ag274
ag418
ag526
ag634
ag742
ag850
ag958
ag58
ag202
ag346
asI20
(lp1428
g23
ag167
ag311
ag455
ag563
ag671
ag779
ag887
ag995
ag95
ag239
ag383
ag491
ag599
ag707
ag815
ag923
ag1031
ag131
ag275
ag419
ag527
ag635
ag743
ag851
ag959
ag59
ag203
ag347
asI21
(lp1429
g24
ag168
ag312
ag456
ag564
ag672
ag780
ag888
ag996
ag96
ag240
ag384
ag492
ag600
ag708
ag816
ag924
ag1032
ag132
ag276
ag420
ag528
ag636
ag744
ag852
ag960
ag60
ag204
ag348
asI22
(lp1430
g25
ag169
ag313
ag457
ag565
ag673
ag781
ag889
ag997
ag97
ag241
ag385
ag493
ag601
ag709
ag817
ag925
ag1033
ag133
ag277
ag421
ag529
ag637
ag745
ag853
ag961
ag61
ag205
ag349
asI23
(lp1431
g26
ag170
ag314
ag458
ag566
ag674
ag782
ag890
ag998
ag98
ag242
ag386
ag494
ag602
ag710
ag818
ag926
ag1034
ag134
ag278
ag422
ag530
ag638
ag746
ag854
ag962
ag62
ag206
ag350
asI24
(lp1432
g27
ag171
ag315
ag459
ag567
ag675
ag783
ag891
ag999
ag99
ag243
ag387
ag495
ag603
ag711
ag819
ag927
ag1035
ag135
ag279
ag423
ag531
ag639
ag747
ag855
ag963
ag63
ag207
ag351
asI25
(lp1433
g28
ag172
ag316
ag460
ag568
ag676
ag784
ag892
ag1000
ag100
ag244
ag388
ag496
ag604
ag712
ag820
ag928
ag1036
ag136
ag280
ag424
ag532
ag640
ag748
ag856
ag964
ag64
ag208
ag352
asI26
(lp1434
g29
ag173
ag317
ag461
ag569
ag677
ag785
ag893
ag1001
ag101
ag245
ag389
ag497
ag605
ag713
ag821
ag929
ag1037
ag137
ag281
ag425
ag533
ag641
ag749
ag857
ag965
ag65
ag209
ag353
asI27
(lp1435
g30
ag174
ag318
ag462
ag570
ag678
ag786
ag894
ag1002
ag102
ag246
ag390
ag498
ag606
ag714
ag822
ag930
ag1038
ag138
ag282
ag426
ag534
ag642
ag750
ag858
ag966
ag66
ag210
ag354
asI28
(lp1436
g31
ag175
ag319
ag463
ag571
ag679
ag787
ag895
ag1003
ag103
ag247
ag391
ag499
ag607
ag715
ag823
ag931
ag1039
ag139
ag283
ag427
ag535
ag643
ag751
ag859
ag967
ag67
ag211
ag355
asI29
(lp1437
g32
ag176
ag320
ag464
ag572
ag680
ag788
ag896
ag1004
ag104
ag248
ag392
ag500
ag608
ag716
ag824
ag932
ag1040
ag140
ag284
ag428
ag536
ag644
ag752
ag860
ag968
ag68
ag212
ag356
asI30
(lp1438
g33
ag177
ag321
ag465
ag573
ag681
ag789
ag897
ag1005
ag105
ag249
ag393
ag501
ag609
ag717
ag825
ag933
ag1041
ag141
ag285
ag429
ag537
ag645
ag753
ag861
ag969
ag69
ag213
ag357
asI31
(lp1439
g34
ag178
ag322
ag466
ag574
ag682
ag790
ag898
ag1006
ag106
ag250
ag394
ag502
ag610
ag718
ag826
ag934
ag1042
ag142
ag286
ag430
ag538
ag646
ag754
ag862
ag970
ag70
ag214
ag358
asI32
(lp1440
g35
ag179
ag323
ag467
ag575
ag683
ag791
ag899
ag1007
ag107
ag251
ag395
ag503
ag611
ag719
ag827
ag935
ag1043
ag143
ag287
ag431
ag539
ag647
ag755
ag863
ag971
ag71
ag215
ag359
asI33
(lp1441
g36
ag180
ag324
ag468
ag576
ag684
ag792
ag900
ag1008
ag108
ag252
ag396
ag504
ag612
ag720
ag828
ag936
ag1044
ag144
ag288
ag432
ag540
ag648
ag756
ag864
ag972
ag72
ag216
ag360
asI34
(lp1442
g37
ag181
ag325
ag469
ag577
ag685
ag793
ag901
ag1009
ag109
ag253
ag397
ag505
ag613
ag721
ag829
ag937
ag1045
ag145
ag289
ag433
ag541
ag649
ag757
ag865
ag973
ag73
ag217
ag361
assI165
(dp1443
I0
(lp1444
g3
ag147
ag291
ag435
ag543
ag651
ag759
ag867
ag975
ag75
ag219
ag363
asI1
(lp1445
g4
ag148
ag292
ag436
ag544
ag652
ag760
ag868
ag976
ag76
ag220
ag364
asI2
(lp1446
g5
ag149
ag293
ag437
ag545
ag653
ag761
ag869
ag977
ag77
ag221
ag365
asI3
(lp1447
g6
ag150
ag294
ag438
ag546
ag654
ag762
ag870
ag978
ag78
ag222
ag366
asI4
(lp1448
g7
ag151
ag295
ag439
ag547
ag655
ag763
ag871
ag979
ag79
ag223
ag367
asI5
(lp1449
g8
ag152
ag296
ag440
ag548
ag656
ag764
ag872
ag980
ag80
ag224
ag368
asI6
(lp1450
g9
ag153
ag297
ag441
ag549
ag657
ag765
ag873
ag981
ag81
ag225
ag369
asI7
(lp1451
g10
ag154
ag298
ag442
ag550
ag658
ag766
ag874
ag982
ag82
ag226
ag370
asI8
(lp1452
g11
ag155
ag299
ag443
ag551
ag659
ag767
ag875
ag983
ag83
ag227
ag371
asI9
(lp1453
g12
ag156
ag300
ag444
ag552
ag660
ag768
ag876
ag984
ag84
ag228
ag372
asI10
(lp1454
g13
ag157
ag301
ag445
ag553
ag661
ag769
ag877
ag985
ag85
ag229
ag373
asI11
(lp1455
g14
ag158
ag302
ag446
ag554
ag662
ag770
ag878
ag986
ag86
ag230
ag374
asI12
(lp1456
g15
ag159
ag303
ag447
ag555
ag663
ag771
ag879
ag987
ag87
ag231
ag375
asI13
(lp1457
g16
ag160
ag304
ag448
ag556
ag664
ag772
ag880
ag988
ag88
ag232
ag376
asI14
(lp1458
g17
ag161
ag305
ag449
ag557
ag665
ag773
ag881
ag989
ag89
ag233
ag377
asI15
(lp1459
g18
ag162
ag306
ag450
ag558
ag666
ag774
ag882
ag990
ag90
ag234
ag378
asI16
(lp1460
g19
ag163
ag307
ag451
ag559
ag667
ag775
ag883
ag991
ag91
ag235
ag379
asI17
(lp1461
g20
ag164
ag308
ag452
ag560
ag668
ag776
ag884
ag992
ag92
ag236
ag380
asI18
(lp1462
g21
ag165
ag309
ag453
ag561
ag669
ag777
ag885
ag993
ag93
ag237
ag381
asI19
(lp1463
g22
ag166
ag310
ag454
ag562
ag670
ag778
ag886
ag994
ag94
ag238
ag382
asI20
(lp1464
g23
ag167
ag311
ag455
ag563
ag671
ag779
ag887
ag995
ag95
ag239
ag383
asI21
(lp1465
g24
ag168
ag312
ag456
ag564
ag672
ag780
ag888
ag996
ag96
ag240
ag384
asI22
(lp1466
g25
ag169
ag313
ag457
ag565
ag673
ag781
ag889
ag997
ag97
ag241
ag385
asI23
(lp1467
g26
ag170
ag314
ag458
ag566
ag674
ag782
ag890
ag998
ag98
ag242
ag386
asI24
(lp1468
g27
ag171
ag315
ag459
ag567
ag675
ag783
ag891
ag999
ag99
ag243
ag387
asI25
(lp1469
g28
ag172
ag316
ag460
ag568
ag676
ag784
ag892
ag1000
ag100
ag244
ag388
asI26
(lp1470
g29
ag173
ag317
ag461
ag569
ag677
ag785
ag893
ag1001
ag101
ag245
ag389
asI27
(lp1471
g30
ag174
ag318
ag462
ag570
ag678
ag786
ag894
ag1002
ag102
ag246
ag390
asI28
(lp1472
g31
ag175
ag319
ag463
ag571
ag679
ag787
ag895
ag1003
ag103
ag247
ag391
asI29
(lp1473
g32
ag176
ag320
ag464
ag572
ag680
ag788
ag896
ag1004
ag104
ag248
ag392
asI30
(lp1474
g33
ag177
ag321
ag465
ag573
ag681
ag789
ag897
ag1005
ag105
ag249
ag393
asI31
(lp1475
g34
ag178
ag322
ag466
ag574
ag682
ag790
ag898
ag1006
ag106
ag250
ag394
asI32
(lp1476
g35
ag179
ag323
ag467
ag575
ag683
ag791
ag899
ag1007
ag107
ag251
ag395
asI33
(lp1477
g36
ag180
ag324
ag468
ag576
ag684
ag792
ag900
ag1008
ag108
ag252
ag396
asI34
(lp1478
g37
ag181
ag325
ag469
ag577
ag685
ag793
ag901
ag1009
ag109
ag253
ag397
assI300
(dp1479
I0
(lp1480
g3
ag147
ag291
ag435
ag543
ag651
ag759
ag867
ag975
ag75
ag219
ag363
ag471
ag579
ag687
ag795
ag903
ag1011
ag111
ag255
ag399
asI1
(lp1481
g4
ag148
ag292
ag436
ag544
ag652
ag760
ag868
ag976
ag76
ag220
ag364
ag472
ag580
ag688
ag796
ag904
ag1012
ag112
ag256
ag400
asI2
(lp1482
g5
ag149
ag293
ag437
ag545
ag653
ag761
ag869
ag977
ag77
ag221
ag365
ag473
ag581
ag689
ag797
ag905
ag1013
ag113
ag257
ag401
asI3
(lp1483
g6
ag150
ag294
ag438
ag546
ag654
ag762
ag870
ag978
ag78
ag222
ag366
ag474
ag582
ag690
ag798
ag906
ag1014
ag114
ag258
ag402
asI4
(lp1484
g7
ag151
ag295
ag439
ag547
ag655
ag763
ag871
ag979
ag79
ag223
ag367
ag475
ag583
ag691
ag799
ag907
ag1015
ag115
ag259
ag403
asI5
(lp1485
g8
ag152
ag296
ag440
ag548
ag656
ag764
ag872
ag980
ag80
ag224
ag368
ag476
ag584
ag692
ag800
ag908
ag1016
ag116
ag260
ag404
asI6
(lp1486
g9
ag153
ag297
ag441
ag549
ag657
ag765
ag873
ag981
ag81
ag225
ag369
ag477
ag585
ag693
ag801
ag909
ag1017
ag117
ag261
ag405
asI7
(lp1487
g10
ag154
ag298
ag442
ag550
ag658
ag766
ag874
ag982
ag82
ag226
ag370
ag478
ag586
ag694
ag802
ag910
ag1018
ag118
ag262
ag406
asI8
(lp1488
g11
ag155
ag299
ag443
ag551
ag659
ag767
ag875
ag983
ag83
ag227
ag371
ag479
ag587
ag695
ag803
ag911
ag1019
ag119
ag263
ag407
asI9
(lp1489
g12
ag156
ag300
ag444
ag552
ag660
ag768
ag876
ag984
ag84
ag228
ag372
ag480
ag588
ag696
ag804
ag912
ag1020
ag120
ag264
ag408
asI10
(lp1490
g13
ag157
ag301
ag445
ag553
ag661
ag769
ag877
ag985
ag85
ag229
ag373
ag481
ag589
ag697
ag805
ag913
ag1021
ag121
ag265
ag409
asI11
(lp1491
g14
ag158
ag302
ag446
ag554
ag662
ag770
ag878
ag986
ag86
ag230
ag374
ag482
ag590
ag698
ag806
ag914
ag1022
ag122
ag266
ag410
asI12
(lp1492
g15
ag159
ag303
ag447
ag555
ag663
ag771
ag879
ag987
ag87
ag231
ag375
ag483
ag591
ag699
ag807
ag915
ag1023
ag123
ag267
ag411
asI13
(lp1493
g16
ag160
ag304
ag448
ag556
ag664
ag772
ag880
ag988
ag88
ag232
ag376
ag484
ag592
ag700
ag808
ag916
ag1024
ag124
ag268
ag412
asI14
(lp1494
g17
ag161
ag305
ag449
ag557
ag665
ag773
ag881
ag989
ag89
ag233
ag377
ag485
ag593
ag701
ag809
ag917
ag1025
ag125
ag269
ag413
asI15
(lp1495
g18
ag162
ag306
ag450
ag558
ag666
ag774
ag882
ag990
ag90
ag234
ag378
ag486
ag594
ag702
ag810
ag918
ag1026
ag126
ag270
ag414
asI16
(lp1496
g19
ag163
ag307
ag451
ag559
ag667
ag775
ag883
ag991
ag91
ag235
ag379
ag487
ag595
ag703
ag811
ag919
ag1027
ag127
ag271
ag415
asI17
(lp1497
g20
ag164
ag308
ag452
ag560
ag668
ag776
ag884
ag992
ag92
ag236
ag380
ag488
ag596
ag704
ag812
ag920
ag1028
ag128
ag272
ag416
asI18
(lp1498
g21
ag165
ag309
ag453
ag561
ag669
ag777
ag885
ag993
ag93
ag237
ag381
ag489
ag597
ag705
ag813
ag921
ag1029
ag129
ag273
ag417
asI19
(lp1499
g22
ag166
ag310
ag454
ag562
ag670
ag778
ag886
ag994
ag94
ag238
ag382
ag490
ag598
ag706
ag814
ag922
ag1030
ag130
ag274
ag418
asI20
(lp1500
g23
ag167
ag311
ag455
ag563
ag671
ag779
ag887
ag995
ag95
ag239
ag383
ag491
ag599
ag707
ag815
ag923
ag1031
ag131
ag275
ag419
asI21
(lp1501
g24
ag168
ag312
ag456
ag564
ag672
ag780
ag888
ag996
ag96
ag240
ag384
ag492
ag600
ag708
ag816
ag924
ag1032
ag132
ag276
ag420
asI22
(lp1502
g25
ag169
ag313
ag457
ag565
ag673
ag781
ag889
ag997
ag97
ag241
ag385
ag493
ag601
ag709
ag817
ag925
ag1033
ag133
ag277
ag421
asI23
(lp1503
g26
ag170
ag314
ag458
ag566
ag674
ag782
ag890
ag998
ag98
ag242
ag386
ag494
ag602
ag710
ag818
ag926
ag1034
ag134
ag278
ag422
asI24
(lp1504
g27
ag171
ag315
ag459
ag567
ag675
ag783
ag891
ag999
ag99
ag243
ag387
ag495
ag603
ag711
ag819
ag927
ag1035
ag135
ag279
ag423
asI25
(lp1505
g28
ag172
ag316
ag460
ag568
ag676
ag784
ag892
ag1000
ag100
ag244
ag388
ag496
ag604
ag712
ag820
ag928
ag1036
ag136
ag280
ag424
asI26
(lp1506
g29
ag173
ag317
ag461
ag569
ag677
ag785
ag893
ag1001
ag101
ag245
ag389
ag497
ag605
ag713
ag821
ag929
ag1037
ag137
ag281
ag425
asI27
(lp1507
g30
ag174
ag318
ag462
ag570
ag678
ag786
ag894
ag1002
ag102
ag246
ag390
ag498
ag606
ag714
ag822
ag930
ag1038
ag138
ag282
ag426
asI28
(lp1508
g31
ag175
ag319
ag463
ag571
ag679
ag787
ag895
ag1003
ag103
ag247
ag391
ag499
ag607
ag715
ag823
ag931
ag1039
ag139
ag283
ag427
asI29
(lp1509
g32
ag176
ag320
ag464
ag572
ag680
ag788
ag896
ag1004
ag104
ag248
ag392
ag500
ag608
ag716
ag824
ag932
ag1040
ag140
ag284
ag428
asI30
(lp1510
g33
ag177
ag321
ag465
ag573
ag681
ag789
ag897
ag1005
ag105
ag249
ag393
ag501
ag609
ag717
ag825
ag933
ag1041
ag141
ag285
ag429
asI31
(lp1511
g34
ag178
ag322
ag466
ag574
ag682
ag790
ag898
ag1006
ag106
ag250
ag394
ag502
ag610
ag718
ag826
ag934
ag1042
ag142
ag286
ag430
asI32
(lp1512
g35
ag179
ag323
ag467
ag575
ag683
ag791
ag899
ag1007
ag107
ag251
ag395
ag503
ag611
ag719
ag827
ag935
ag1043
ag143
ag287
ag431
asI33
(lp1513
g36
ag180
ag324
ag468
ag576
ag684
ag792
ag900
ag1008
ag108
ag252
ag396
ag504
ag612
ag720
ag828
ag936
ag1044
ag144
ag288
ag432
asI34
(lp1514
g37
ag181
ag325
ag469
ag577
ag685
ag793
ag901
ag1009
ag109
ag253
ag397
ag505
ag613
ag721
ag829
ag937
ag1045
ag145
ag289
ag433
assI45
(dp1515
I0
(lp1516
g3
ag147
ag291
ag435
asI1
(lp1517
g4
ag148
ag292
ag436
asI2
(lp1518
g5
ag149
ag293
ag437
asI3
(lp1519
g6
ag150
ag294
ag438
asI4
(lp1520
g7
ag151
ag295
ag439
asI5
(lp1521
g8
ag152
ag296
ag440
asI6
(lp1522
g9
ag153
ag297
ag441
asI7
(lp1523
g10
ag154
ag298
ag442
asI8
(lp1524
g11
ag155
ag299
ag443
asI9
(lp1525
g12
ag156
ag300
ag444
asI10
(lp1526
g13
ag157
ag301
ag445
asI11
(lp1527
g14
ag158
ag302
ag446
asI12
(lp1528
g15
ag159
ag303
ag447
asI13
(lp1529
g16
ag160
ag304
ag448
asI14
(lp1530
g17
ag161
ag305
ag449
asI15
(lp1531
g18
ag162
ag306
ag450
asI16
(lp1532
g19
ag163
ag307
ag451
asI17
(lp1533
g20
ag164
ag308
ag452
asI18
(lp1534
g21
ag165
ag309
ag453
asI19
(lp1535
g22
ag166
ag310
ag454
asI20
(lp1536
g23
ag167
ag311
ag455
asI21
(lp1537
g24
ag168
ag312
ag456
asI22
(lp1538
g25
ag169
ag313
ag457
asI23
(lp1539
g26
ag170
ag314
ag458
asI24
(lp1540
g27
ag171
ag315
ag459
asI25
(lp1541
g28
ag172
ag316
ag460
asI26
(lp1542
g29
ag173
ag317
ag461
asI27
(lp1543
g30
ag174
ag318
ag462
asI28
(lp1544
g31
ag175
ag319
ag463
asI29
(lp1545
g32
ag176
ag320
ag464
asI30
(lp1546
g33
ag177
ag321
ag465
asI31
(lp1547
g34
ag178
ag322
ag466
asI32
(lp1548
g35
ag179
ag323
ag467
asI33
(lp1549
g36
ag180
ag324
ag468
asI34
(lp1550
g37
ag181
ag325
ag469
assI180
(dp1551
I0
(lp1552
g3
ag147
ag291
ag435
ag543
ag651
ag759
ag867
ag975
ag75
ag219
ag363
ag471
asI1
(lp1553
g4
ag148
ag292
ag436
ag544
ag652
ag760
ag868
ag976
ag76
ag220
ag364
ag472
asI2
(lp1554
g5
ag149
ag293
ag437
ag545
ag653
ag761
ag869
ag977
ag77
ag221
ag365
ag473
asI3
(lp1555
g6
ag150
ag294
ag438
ag546
ag654
ag762
ag870
ag978
ag78
ag222
ag366
ag474
asI4
(lp1556
g7
ag151
ag295
ag439
ag547
ag655
ag763
ag871
ag979
ag79
ag223
ag367
ag475
asI5
(lp1557
g8
ag152
ag296
ag440
ag548
ag656
ag764
ag872
ag980
ag80
ag224
ag368
ag476
asI6
(lp1558
g9
ag153
ag297
ag441
ag549
ag657
ag765
ag873
ag981
ag81
ag225
ag369
ag477
asI7
(lp1559
g10
ag154
ag298
ag442
ag550
ag658
ag766
ag874
ag982
ag82
ag226
ag370
ag478
asI8
(lp1560
g11
ag155
ag299
ag443
ag551
ag659
ag767
ag875
ag983
ag83
ag227
ag371
ag479
asI9
(lp1561
g12
ag156
ag300
ag444
ag552
ag660
ag768
ag876
ag984
ag84
ag228
ag372
ag480
asI10
(lp1562
g13
ag157
ag301
ag445
ag553
ag661
ag769
ag877
ag985
ag85
ag229
ag373
ag481
asI11
(lp1563
g14
ag158
ag302
ag446
ag554
ag662
ag770
ag878
ag986
ag86
ag230
ag374
ag482
asI12
(lp1564
g15
ag159
ag303
ag447
ag555
ag663
ag771
ag879
ag987
ag87
ag231
ag375
ag483
asI13
(lp1565
g16
ag160
ag304
ag448
ag556
ag664
ag772
ag880
ag988
ag88
ag232
ag376
ag484
asI14
(lp1566
g17
ag161
ag305
ag449
ag557
ag665
ag773
ag881
ag989
ag89
ag233
ag377
ag485
asI15
(lp1567
g18
ag162
ag306
ag450
ag558
ag666
ag774
ag882
ag990
ag90
ag234
ag378
ag486
asI16
(lp1568
g19
ag163
ag307
ag451
ag559
ag667
ag775
ag883
ag991
ag91
ag235
ag379
ag487
asI17
(lp1569
g20
ag164
ag308
ag452
ag560
ag668
ag776
ag884
ag992
ag92
ag236
ag380
ag488
asI18
(lp1570
g21
ag165
ag309
ag453
ag561
ag669
ag777
ag885
ag993
ag93
ag237
ag381
ag489
asI19
(lp1571
g22
ag166
ag310
ag454
ag562
ag670
ag778
ag886
ag994
ag94
ag238
ag382
ag490
asI20
(lp1572
g23
ag167
ag311
ag455
ag563
ag671
ag779
ag887
ag995
ag95
ag239
ag383
ag491
asI21
(lp1573
g24
ag168
ag312
ag456
ag564
ag672
ag780
ag888
ag996
ag96
ag240
ag384
ag492
asI22
(lp1574
g25
ag169
ag313
ag457
ag565
ag673
ag781
ag889
ag997
ag97
ag241
ag385
ag493
asI23
(lp1575
g26
ag170
ag314
ag458
ag566
ag674
ag782
ag890
ag998
ag98
ag242
ag386
ag494
asI24
(lp1576
g27
ag171
ag315
ag459
ag567
ag675
ag783
ag891
ag999
ag99
ag243
ag387
ag495
asI25
(lp1577
g28
ag172
ag316
ag460
ag568
ag676
ag784
ag892
ag1000
ag100
ag244
ag388
ag496
asI26
(lp1578
g29
ag173
ag317
ag461
ag569
ag677
ag785
ag893
ag1001
ag101
ag245
ag389
ag497
asI27
(lp1579
g30
ag174
ag318
ag462
ag570
ag678
ag786
ag894
ag1002
ag102
ag246
ag390
ag498
asI28
(lp1580
g31
ag175
ag319
ag463
ag571
ag679
ag787
ag895
ag1003
ag103
ag247
ag391
ag499
asI29
(lp1581
g32
ag176
ag320
ag464
ag572
ag680
ag788
ag896
ag1004
ag104
ag248
ag392
ag500
asI30
(lp1582
g33
ag177
ag321
ag465
ag573
ag681
ag789
ag897
ag1005
ag105
ag249
ag393
ag501
asI31
(lp1583
g34
ag178
ag322
ag466
ag574
ag682
ag790
ag898
ag1006
ag106
ag250
ag394
ag502
asI32
(lp1584
g35
ag179
ag323
ag467
ag575
ag683
ag791
ag899
ag1007
ag107
ag251
ag395
ag503
asI33
(lp1585
g36
ag180
ag324
ag468
ag576
ag684
ag792
ag900
ag1008
ag108
ag252
ag396
ag504
asI34
(lp1586
g37
ag181
ag325
ag469
ag577
ag685
ag793
ag901
ag1009
ag109
ag253
ag397
ag505
assI315
(dp1587
I0
(lp1588
g3
ag147
ag291
ag435
ag543
ag651
ag759
ag867
ag975
ag75
ag219
ag363
ag471
ag579
ag687
ag795
ag903
ag1011
ag111
ag255
ag399
ag507
asI1
(lp1589
g4
ag148
ag292
ag436
ag544
ag652
ag760
ag868
ag976
ag76
ag220
ag364
ag472
ag580
ag688
ag796
ag904
ag1012
ag112
ag256
ag400
ag508
asI2
(lp1590
g5
ag149
ag293
ag437
ag545
ag653
ag761
ag869
ag977
ag77
ag221
ag365
ag473
ag581
ag689
ag797
ag905
ag1013
ag113
ag257
ag401
ag509
asI3
(lp1591
g6
ag150
ag294
ag438
ag546
ag654
ag762
ag870
ag978
ag78
ag222
ag366
ag474
ag582
ag690
ag798
ag906
ag1014
ag114
ag258
ag402
ag510
asI4
(lp1592
g7
ag151
ag295
ag439
ag547
ag655
ag763
ag871
ag979
ag79
ag223
ag367
ag475
ag583
ag691
ag799
ag907
ag1015
ag115
ag259
ag403
ag511
asI5
(lp1593
g8
ag152
ag296
ag440
ag548
ag656
ag764
ag872
ag980
ag80
ag224
ag368
ag476
ag584
ag692
ag800
ag908
ag1016
ag116
ag260
ag404
ag512
asI6
(lp1594
g9
ag153
ag297
ag441
ag549
ag657
ag765
ag873
ag981
ag81
ag225
ag369
ag477
ag585
ag693
ag801
ag909
ag1017
ag117
ag261
ag405
ag513
asI7
(lp1595
g10
ag154
ag298
ag442
ag550
ag658
ag766
ag874
ag982
ag82
ag226
ag370
ag478
ag586
ag694
ag802
ag910
ag1018
ag118
ag262
ag406
ag514
asI8
(lp1596
g11
ag155
ag299
ag443
ag551
ag659
ag767
ag875
ag983
ag83
ag227
ag371
ag479
ag587
ag695
ag803
ag911
ag1019
ag119
ag263
ag407
ag515
asI9
(lp1597
g12
ag156
ag300
ag444
ag552
ag660
ag768
ag876
ag984
ag84
ag228
ag372
ag480
ag588
ag696
ag804
ag912
ag1020
ag120
ag264
ag408
ag516
asI10
(lp1598
g13
ag157
ag301
ag445
ag553
ag661
ag769
ag877
ag985
ag85
ag229
ag373
ag481
ag589
ag697
ag805
ag913
ag1021
ag121
ag265
ag409
ag517
asI11
(lp1599
g14
ag158
ag302
ag446
ag554
ag662
ag770
ag878
ag986
ag86
ag230
ag374
ag482
ag590
ag698
ag806
ag914
ag1022
ag122
ag266
ag410
ag518
asI12
(lp1600
g15
ag159
ag303
ag447
ag555
ag663
ag771
ag879
ag987
ag87
ag231
ag375
ag483
ag591
ag699
ag807
ag915
ag1023
ag123
ag267
ag411
ag519
asI13
(lp1601
g16
ag160
ag304
ag448
ag556
ag664
ag772
ag880
ag988
ag88
ag232
ag376
ag484
ag592
ag700
ag808
ag916
ag1024
ag124
ag268
ag412
ag520
asI14
(lp1602
g17
ag161
ag305
ag449
ag557
ag665
ag773
ag881
ag989
ag89
ag233
ag377
ag485
ag593
ag701
ag809
ag917
ag1025
ag125
ag269
ag413
ag521
asI15
(lp1603
g18
ag162
ag306
ag450
ag558
ag666
ag774
ag882
ag990
ag90
ag234
ag378
ag486
ag594
ag702
ag810
ag918
ag1026
ag126
ag270
ag414
ag522
asI16
(lp1604
g19
ag163
ag307
ag451
ag559
ag667
ag775
ag883
ag991
ag91
ag235
ag379
ag487
ag595
ag703
ag811
ag919
ag1027
ag127
ag271
ag415
ag523
asI17
(lp1605
g20
ag164
ag308
ag452
ag560
ag668
ag776
ag884
ag992
ag92
ag236
ag380
ag488
ag596
ag704
ag812
ag920
ag1028
ag128
ag272
ag416
ag524
asI18
(lp1606
g21
ag165
ag309
ag453
ag561
ag669
ag777
ag885
ag993
ag93
ag237
ag381
ag489
ag597
ag705
ag813
ag921
ag1029
ag129
ag273
ag417
ag525
asI19
(lp1607
g22
ag166
ag310
ag454
ag562
ag670
ag778
ag886
ag994
ag94
ag238
ag382
ag490
ag598
ag706
ag814
ag922
ag1030
ag130
ag274
ag418
ag526
asI20
(lp1608
g23
ag167
ag311
ag455
ag563
ag671
ag779
ag887
ag995
ag95
ag239
ag383
ag491
ag599
ag707
ag815
ag923
ag1031
ag131
ag275
ag419
ag527
asI21
(lp1609
g24
ag168
ag312
ag456
ag564
ag672
ag780
ag888
ag996
ag96
ag240
ag384
ag492
ag600
ag708
ag816
ag924
ag1032
ag132
ag276
ag420
ag528
asI22
(lp1610
g25
ag169
ag313
ag457
ag565
ag673
ag781
ag889
ag997
ag97
ag241
ag385
ag493
ag601
ag709
ag817
ag925
ag1033
ag133
ag277
ag421
ag529
asI23
(lp1611
g26
ag170
ag314
ag458
ag566
ag674
ag782
ag890
ag998
ag98
ag242
ag386
ag494
ag602
ag710
ag818
ag926
ag1034
ag134
ag278
ag422
ag530
asI24
(lp1612
g27
ag171
ag315
ag459
ag567
ag675
ag783
ag891
ag999
ag99
ag243
ag387
ag495
ag603
ag711
ag819
ag927
ag1035
ag135
ag279
ag423
ag531
asI25
(lp1613
g28
ag172
ag316
ag460
ag568
ag676
ag784
ag892
ag1000
ag100
ag244
ag388
ag496
ag604
ag712
ag820
ag928
ag1036
ag136
ag280
ag424
ag532
asI26
(lp1614
g29
ag173
ag317
ag461
ag569
ag677
ag785
ag893
ag1001
ag101
ag245
ag389
ag497
ag605
ag713
ag821
ag929
ag1037
ag137
ag281
ag425
ag533
asI27
(lp1615
g30
ag174
ag318
ag462
ag570
ag678
ag786
ag894
ag1002
ag102
ag246
ag390
ag498
ag606
ag714
ag822
ag930
ag1038
ag138
ag282
ag426
ag534
asI28
(lp1616
g31
ag175
ag319
ag463
ag571
ag679
ag787
ag895
ag1003
ag103
ag247
ag391
ag499
ag607
ag715
ag823
ag931
ag1039
ag139
ag283
ag427
ag535
asI29
(lp1617
g32
ag176
ag320
ag464
ag572
ag680
ag788
ag896
ag1004
ag104
ag248
ag392
ag500
ag608
ag716
ag824
ag932
ag1040
ag140
ag284
ag428
ag536
asI30
(lp1618
g33
ag177
ag321
ag465
ag573
ag681
ag789
ag897
ag1005
ag105
ag249
ag393
ag501
ag609
ag717
ag825
ag933
ag1041
ag141
ag285
ag429
ag537
asI31
(lp1619
g34
ag178
ag322
ag466
ag574
ag682
ag790
ag898
ag1006
ag106
ag250
ag394
ag502
ag610
ag718
ag826
ag934
ag1042
ag142
ag286
ag430
ag538
asI32
(lp1620
g35
ag179
ag323
ag467
ag575
ag683
ag791
ag899
ag1007
ag107
ag251
ag395
ag503
ag611
ag719
ag827
ag935
ag1043
ag143
ag287
ag431
ag539
asI33
(lp1621
g36
ag180
ag324
ag468
ag576
ag684
ag792
ag900
ag1008
ag108
ag252
ag396
ag504
ag612
ag720
ag828
ag936
ag1044
ag144
ag288
ag432
ag540
asI34
(lp1622
g37
ag181
ag325
ag469
ag577
ag685
ag793
ag901
ag1009
ag109
ag253
ag397
ag505
ag613
ag721
ag829
ag937
ag1045
ag145
ag289
ag433
ag541
assI60
(dp1623
I0
(lp1624
g3
ag147
ag291
ag435
ag543
asI1
(lp1625
g4
ag148
ag292
ag436
ag544
asI2
(lp1626
g5
ag149
ag293
ag437
ag545
asI3
(lp1627
g6
ag150
ag294
ag438
ag546
asI4
(lp1628
g7
ag151
ag295
ag439
ag547
asI5
(lp1629
g8
ag152
ag296
ag440
ag548
asI6
(lp1630
g9
ag153
ag297
ag441
ag549
asI7
(lp1631
g10
ag154
ag298
ag442
ag550
asI8
(lp1632
g11
ag155
ag299
ag443
ag551
asI9
(lp1633
g12
ag156
ag300
ag444
ag552
asI10
(lp1634
g13
ag157
ag301
ag445
ag553
asI11
(lp1635
g14
ag158
ag302
ag446
ag554
asI12
(lp1636
g15
ag159
ag303
ag447
ag555
asI13
(lp1637
g16
ag160
ag304
ag448
ag556
asI14
(lp1638
g17
ag161
ag305
ag449
ag557
asI15
(lp1639
g18
ag162
ag306
ag450
ag558
asI16
(lp1640
g19
ag163
ag307
ag451
ag559
asI17
(lp1641
g20
ag164
ag308
ag452
ag560
asI18
(lp1642
g21
ag165
ag309
ag453
ag561
asI19
(lp1643
g22
ag166
ag310
ag454
ag562
asI20
(lp1644
g23
ag167
ag311
ag455
ag563
asI21
(lp1645
g24
ag168
ag312
ag456
ag564
asI22
(lp1646
g25
ag169
ag313
ag457
ag565
asI23
(lp1647
g26
ag170
ag314
ag458
ag566
asI24
(lp1648
g27
ag171
ag315
ag459
ag567
asI25
(lp1649
g28
ag172
ag316
ag460
ag568
asI26
(lp1650
g29
ag173
ag317
ag461
ag569
asI27
(lp1651
g30
ag174
ag318
ag462
ag570
asI28
(lp1652
g31
ag175
ag319
ag463
ag571
asI29
(lp1653
g32
ag176
ag320
ag464
ag572
asI30
(lp1654
g33
ag177
ag321
ag465
ag573
asI31
(lp1655
g34
ag178
ag322
ag466
ag574
asI32
(lp1656
g35
ag179
ag323
ag467
ag575
asI33
(lp1657
g36
ag180
ag324
ag468
ag576
asI34
(lp1658
g37
ag181
ag325
ag469
ag577
assI195
(dp1659
I0
(lp1660
g3
ag147
ag291
ag435
ag543
ag651
ag759
ag867
ag975
ag75
ag219
ag363
ag471
ag579
asI1
(lp1661
g4
ag148
ag292
ag436
ag544
ag652
ag760
ag868
ag976
ag76
ag220
ag364
ag472
ag580
asI2
(lp1662
g5
ag149
ag293
ag437
ag545
ag653
ag761
ag869
ag977
ag77
ag221
ag365
ag473
ag581
asI3
(lp1663
g6
ag150
ag294
ag438
ag546
ag654
ag762
ag870
ag978
ag78
ag222
ag366
ag474
ag582
asI4
(lp1664
g7
ag151
ag295
ag439
ag547
ag655
ag763
ag871
ag979
ag79
ag223
ag367
ag475
ag583
asI5
(lp1665
g8
ag152
ag296
ag440
ag548
ag656
ag764
ag872
ag980
ag80
ag224
ag368
ag476
ag584
asI6
(lp1666
g9
ag153
ag297
ag441
ag549
ag657
ag765
ag873
ag981
ag81
ag225
ag369
ag477
ag585
asI7
(lp1667
g10
ag154
ag298
ag442
ag550
ag658
ag766
ag874
ag982
ag82
ag226
ag370
ag478
ag586
asI8
(lp1668
g11
ag155
ag299
ag443
ag551
ag659
ag767
ag875
ag983
ag83
ag227
ag371
ag479
ag587
asI9
(lp1669
g12
ag156
ag300
ag444
ag552
ag660
ag768
ag876
ag984
ag84
ag228
ag372
ag480
ag588
asI10
(lp1670
g13
ag157
ag301
ag445
ag553
ag661
ag769
ag877
ag985
ag85
ag229
ag373
ag481
ag589
asI11
(lp1671
g14
ag158
ag302
ag446
ag554
ag662
ag770
ag878
ag986
ag86
ag230
ag374
ag482
ag590
asI12
(lp1672
g15
ag159
ag303
ag447
ag555
ag663
ag771
ag879
ag987
ag87
ag231
ag375
ag483
ag591
asI13
(lp1673
g16
ag160
ag304
ag448
ag556
ag664
ag772
ag880
ag988
ag88
ag232
ag376
ag484
ag592
asI14
(lp1674
g17
ag161
ag305
ag449
ag557
ag665
ag773
ag881
ag989
ag89
ag233
ag377
ag485
ag593
asI15
(lp1675
g18
ag162
ag306
ag450
ag558
ag666
ag774
ag882
ag990
ag90
ag234
ag378
ag486
ag594
asI16
(lp1676
g19
ag163
ag307
ag451
ag559
ag667
ag775
ag883
ag991
ag91
ag235
ag379
ag487
ag595
asI17
(lp1677
g20
ag164
ag308
ag452
ag560
ag668
ag776
ag884
ag992
ag92
ag236
ag380
ag488
ag596
asI18
(lp1678
g21
ag165
ag309
ag453
ag561
ag669
ag777
ag885
ag993
ag93
ag237
ag381
ag489
ag597
asI19
(lp1679
g22
ag166
ag310
ag454
ag562
ag670
ag778
ag886
ag994
ag94
ag238
ag382
ag490
ag598
asI20
(lp1680
g23
ag167
ag311
ag455
ag563
ag671
ag779
ag887
ag995
ag95
ag239
ag383
ag491
ag599
asI21
(lp1681
g24
ag168
ag312
ag456
ag564
ag672
ag780
ag888
ag996
ag96
ag240
ag384
ag492
ag600
asI22
(lp1682
g25
ag169
ag313
ag457
ag565
ag673
ag781
ag889
ag997
ag97
ag241
ag385
ag493
ag601
asI23
(lp1683
g26
ag170
ag314
ag458
ag566
ag674
ag782
ag890
ag998
ag98
ag242
ag386
ag494
ag602
asI24
(lp1684
g27
ag171
ag315
ag459
ag567
ag675
ag783
ag891
ag999
ag99
ag243
ag387
ag495
ag603
asI25
(lp1685
g28
ag172
ag316
ag460
ag568
ag676
ag784
ag892
ag1000
ag100
ag244
ag388
ag496
ag604
asI26
(lp1686
g29
ag173
ag317
ag461
ag569
ag677
ag785
ag893
ag1001
ag101
ag245
ag389
ag497
ag605
asI27
(lp1687
g30
ag174
ag318
ag462
ag570
ag678
ag786
ag894
ag1002
ag102
ag246
ag390
ag498
ag606
asI28
(lp1688
g31
ag175
ag319
ag463
ag571
ag679
ag787
ag895
ag1003
ag103
ag247
ag391
ag499
ag607
asI29
(lp1689
g32
ag176
ag320
ag464
ag572
ag680
ag788
ag896
ag1004
ag104
ag248
ag392
ag500
ag608
asI30
(lp1690
g33
ag177
ag321
ag465
ag573
ag681
ag789
ag897
ag1005
ag105
ag249
ag393
ag501
ag609
asI31
(lp1691
g34
ag178
ag322
ag466
ag574
ag682
ag790
ag898
ag1006
ag106
ag250
ag394
ag502
ag610
asI32
(lp1692
g35
ag179
ag323
ag467
ag575
ag683
ag791
ag899
ag1007
ag107
ag251
ag395
ag503
ag611
asI33
(lp1693
g36
ag180
ag324
ag468
ag576
ag684
ag792
ag900
ag1008
ag108
ag252
ag396
ag504
ag612
asI34
(lp1694
g37
ag181
ag325
ag469
ag577
ag685
ag793
ag901
ag1009
ag109
ag253
ag397
ag505
ag613
assI330
(dp1695
I0
(lp1696
g3
ag147
ag291
ag435
ag543
ag651
ag759
ag867
ag975
ag75
ag219
ag363
ag471
ag579
ag687
ag795
ag903
ag1011
ag111
ag255
ag399
ag507
ag615
asI1
(lp1697
g4
ag148
ag292
ag436
ag544
ag652
ag760
ag868
ag976
ag76
ag220
ag364
ag472
ag580
ag688
ag796
ag904
ag1012
ag112
ag256
ag400
ag508
ag616
asI2
(lp1698
g5
ag149
ag293
ag437
ag545
ag653
ag761
ag869
ag977
ag77
ag221
ag365
ag473
ag581
ag689
ag797
ag905
ag1013
ag113
ag257
ag401
ag509
ag617
asI3
(lp1699
g6
ag150
ag294
ag438
ag546
ag654
ag762
ag870
ag978
ag78
ag222
ag366
ag474
ag582
ag690
ag798
ag906
ag1014
ag114
ag258
ag402
ag510
ag618
asI4
(lp1700
g7
ag151
ag295
ag439
ag547
ag655
ag763
ag871
ag979
ag79
ag223
ag367
ag475
ag583
ag691
ag799
ag907
ag1015
ag115
ag259
ag403
ag511
ag619
asI5
(lp1701
g8
ag152
ag296
ag440
ag548
ag656
ag764
ag872
ag980
ag80
ag224
ag368
ag476
ag584
ag692
ag800
ag908
ag1016
ag116
ag260
ag404
ag512
ag620
asI6
(lp1702
g9
ag153
ag297
ag441
ag549
ag657
ag765
ag873
ag981
ag81
ag225
ag369
ag477
ag585
ag693
ag801
ag909
ag1017
ag117
ag261
ag405
ag513
ag621
asI7
(lp1703
g10
ag154
ag298
ag442
ag550
ag658
ag766
ag874
ag982
ag82
ag226
ag370
ag478
ag586
ag694
ag802
ag910
ag1018
ag118
ag262
ag406
ag514
ag622
asI8
(lp1704
g11
ag155
ag299
ag443
ag551
ag659
ag767
ag875
ag983
ag83
ag227
ag371
ag479
ag587
ag695
ag803
ag911
ag1019
ag119
ag263
ag407
ag515
ag623
asI9
(lp1705
g12
ag156
ag300
ag444
ag552
ag660
ag768
ag876
ag984
ag84
ag228
ag372
ag480
ag588
ag696
ag804
ag912
ag1020
ag120
ag264
ag408
ag516
ag624
asI10
(lp1706
g13
ag157
ag301
ag445
ag553
ag661
ag769
ag877
ag985
ag85
ag229
ag373
ag481
ag589
ag697
ag805
ag913
ag1021
ag121
ag265
ag409
ag517
ag625
asI11
(lp1707
g14
ag158
ag302
ag446
ag554
ag662
ag770
ag878
ag986
ag86
ag230
ag374
ag482
ag590
ag698
ag806
ag914
ag1022
ag122
ag266
ag410
ag518
ag626
asI12
(lp1708
g15
ag159
ag303
ag447
ag555
ag663
ag771
ag879
ag987
ag87
ag231
ag375
ag483
ag591
ag699
ag807
ag915
ag1023
ag123
ag267
ag411
ag519
ag627
asI13
(lp1709
g16
ag160
ag304
ag448
ag556
ag664
ag772
ag880
ag988
ag88
ag232
ag376
ag484
ag592
ag700
ag808
ag916
ag1024
ag124
ag268
ag412
ag520
ag628
asI14
(lp1710
g17
ag161
ag305
ag449
ag557
ag665
ag773
ag881
ag989
ag89
ag233
ag377
ag485
ag593
ag701
ag809
ag917
ag1025
ag125
ag269
ag413
ag521
ag629
asI15
(lp1711
g18
ag162
ag306
ag450
ag558
ag666
ag774
ag882
ag990
ag90
ag234
ag378
ag486
ag594
ag702
ag810
ag918
ag1026
ag126
ag270
ag414
ag522
ag630
asI16
(lp1712
g19
ag163
ag307
ag451
ag559
ag667
ag775
ag883
ag991
ag91
ag235
ag379
ag487
ag595
ag703
ag811
ag919
ag1027
ag127
ag271
ag415
ag523
ag631
asI17
(lp1713
g20
ag164
ag308
ag452
ag560
ag668
ag776
ag884
ag992
ag92
ag236
ag380
ag488
ag596
ag704
ag812
ag920
ag1028
ag128
ag272
ag416
ag524
ag632
asI18
(lp1714
g21
ag165
ag309
ag453
ag561
ag669
ag777
ag885
ag993
ag93
ag237
ag381
ag489
ag597
ag705
ag813
ag921
ag1029
ag129
ag273
ag417
ag525
ag633
asI19
(lp1715
g22
ag166
ag310
ag454
ag562
ag670
ag778
ag886
ag994
ag94
ag238
ag382
ag490
ag598
ag706
ag814
ag922
ag1030
ag130
ag274
ag418
ag526
ag634
asI20
(lp1716
g23
ag167
ag311
ag455
ag563
ag671
ag779
ag887
ag995
ag95
ag239
ag383
ag491
ag599
ag707
ag815
ag923
ag1031
ag131
ag275
ag419
ag527
ag635
asI21
(lp1717
g24
ag168
ag312
ag456
ag564
ag672
ag780
ag888
ag996
ag96
ag240
ag384
ag492
ag600
ag708
ag816
ag924
ag1032
ag132
ag276
ag420
ag528
ag636
asI22
(lp1718
g25
ag169
ag313
ag457
ag565
ag673
ag781
ag889
ag997
ag97
ag241
ag385
ag493
ag601
ag709
ag817
ag925
ag1033
ag133
ag277
ag421
ag529
ag637
asI23
(lp1719
g26
ag170
ag314
ag458
ag566
ag674
ag782
ag890
ag998
ag98
ag242
ag386
ag494
ag602
ag710
ag818
ag926
ag1034
ag134
ag278
ag422
ag530
ag638
asI24
(lp1720
g27
ag171
ag315
ag459
ag567
ag675
ag783
ag891
ag999
ag99
ag243
ag387
ag495
ag603
ag711
ag819
ag927
ag1035
ag135
ag279
ag423
ag531
ag639
asI25
(lp1721
g28
ag172
ag316
ag460
ag568
ag676
ag784
ag892
ag1000
ag100
ag244
ag388
ag496
ag604
ag712
ag820
ag928
ag1036
ag136
ag280
ag424
ag532
ag640
asI26
(lp1722
g29
ag173
ag317
ag461
ag569
ag677
ag785
ag893
ag1001
ag101
ag245
ag389
ag497
ag605
ag713
ag821
ag929
ag1037
ag137
ag281
ag425
ag533
ag641
asI27
(lp1723
g30
ag174
ag318
ag462
ag570
ag678
ag786
ag894
ag1002
ag102
ag246
ag390
ag498
ag606
ag714
ag822
ag930
ag1038
ag138
ag282
ag426
ag534
ag642
asI28
(lp1724
g31
ag175
ag319
ag463
ag571
ag679
ag787
ag895
ag1003
ag103
ag247
ag391
ag499
ag607
ag715
ag823
ag931
ag1039
ag139
ag283
ag427
ag535
ag643
asI29
(lp1725
g32
ag176
ag320
ag464
ag572
ag680
ag788
ag896
ag1004
ag104
ag248
ag392
ag500
ag608
ag716
ag824
ag932
ag1040
ag140
ag284
ag428
ag536
ag644
asI30
(lp1726
g33
ag177
ag321
ag465
ag573
ag681
ag789
ag897
ag1005
ag105
ag249
ag393
ag501
ag609
ag717
ag825
ag933
ag1041
ag141
ag285
ag429
ag537
ag645
asI31
(lp1727
g34
ag178
ag322
ag466
ag574
ag682
ag790
ag898
ag1006
ag106
ag250
ag394
ag502
ag610
ag718
ag826
ag934
ag1042
ag142
ag286
ag430
ag538
ag646
asI32
(lp1728
g35
ag179
ag323
ag467
ag575
ag683
ag791
ag899
ag1007
ag107
ag251
ag395
ag503
ag611
ag719
ag827
ag935
ag1043
ag143
ag287
ag431
ag539
ag647
asI33
(lp1729
g36
ag180
ag324
ag468
ag576
ag684
ag792
ag900
ag1008
ag108
ag252
ag396
ag504
ag612
ag720
ag828
ag936
ag1044
ag144
ag288
ag432
ag540
ag648
asI34
(lp1730
g37
ag181
ag325
ag469
ag577
ag685
ag793
ag901
ag1009
ag109
ag253
ag397
ag505
ag613
ag721
ag829
ag937
ag1045
ag145
ag289
ag433
ag541
ag649
assI75
(dp1731
I0
(lp1732
g3
ag147
ag291
ag435
ag543
ag651
asI1
(lp1733
g4
ag148
ag292
ag436
ag544
ag652
asI2
(lp1734
g5
ag149
ag293
ag437
ag545
ag653
asI3
(lp1735
g6
ag150
ag294
ag438
ag546
ag654
asI4
(lp1736
g7
ag151
ag295
ag439
ag547
ag655
asI5
(lp1737
g8
ag152
ag296
ag440
ag548
ag656
asI6
(lp1738
g9
ag153
ag297
ag441
ag549
ag657
asI7
(lp1739
g10
ag154
ag298
ag442
ag550
ag658
asI8
(lp1740
g11
ag155
ag299
ag443
ag551
ag659
asI9
(lp1741
g12
ag156
ag300
ag444
ag552
ag660
asI10
(lp1742
g13
ag157
ag301
ag445
ag553
ag661
asI11
(lp1743
g14
ag158
ag302
ag446
ag554
ag662
asI12
(lp1744
g15
ag159
ag303
ag447
ag555
ag663
asI13
(lp1745
g16
ag160
ag304
ag448
ag556
ag664
asI14
(lp1746
g17
ag161
ag305
ag449
ag557
ag665
asI15
(lp1747
g18
ag162
ag306
ag450
ag558
ag666
asI16
(lp1748
g19
ag163
ag307
ag451
ag559
ag667
asI17
(lp1749
g20
ag164
ag308
ag452
ag560
ag668
asI18
(lp1750
g21
ag165
ag309
ag453
ag561
ag669
asI19
(lp1751
g22
ag166
ag310
ag454
ag562
ag670
asI20
(lp1752
g23
ag167
ag311
ag455
ag563
ag671
asI21
(lp1753
g24
ag168
ag312
ag456
ag564
ag672
asI22
(lp1754
g25
ag169
ag313
ag457
ag565
ag673
asI23
(lp1755
g26
ag170
ag314
ag458
ag566
ag674
asI24
(lp1756
g27
ag171
ag315
ag459
ag567
ag675
asI25
(lp1757
g28
ag172
ag316
ag460
ag568
ag676
asI26
(lp1758
g29
ag173
ag317
ag461
ag569
ag677
asI27
(lp1759
g30
ag174
ag318
ag462
ag570
ag678
asI28
(lp1760
g31
ag175
ag319
ag463
ag571
ag679
asI29
(lp1761
g32
ag176
ag320
ag464
ag572
ag680
asI30
(lp1762
g33
ag177
ag321
ag465
ag573
ag681
asI31
(lp1763
g34
ag178
ag322
ag466
ag574
ag682
asI32
(lp1764
g35
ag179
ag323
ag467
ag575
ag683
asI33
(lp1765
g36
ag180
ag324
ag468
ag576
ag684
asI34
(lp1766
g37
ag181
ag325
ag469
ag577
ag685
assI210
(dp1767
I0
(lp1768
g3
ag147
ag291
ag435
ag543
ag651
ag759
ag867
ag975
ag75
ag219
ag363
ag471
ag579
ag687
asI1
(lp1769
g4
ag148
ag292
ag436
ag544
ag652
ag760
ag868
ag976
ag76
ag220
ag364
ag472
ag580
ag688
asI2
(lp1770
g5
ag149
ag293
ag437
ag545
ag653
ag761
ag869
ag977
ag77
ag221
ag365
ag473
ag581
ag689
asI3
(lp1771
g6
ag150
ag294
ag438
ag546
ag654
ag762
ag870
ag978
ag78
ag222
ag366
ag474
ag582
ag690
asI4
(lp1772
g7
ag151
ag295
ag439
ag547
ag655
ag763
ag871
ag979
ag79
ag223
ag367
ag475
ag583
ag691
asI5
(lp1773
g8
ag152
ag296
ag440
ag548
ag656
ag764
ag872
ag980
ag80
ag224
ag368
ag476
ag584
ag692
asI6
(lp1774
g9
ag153
ag297
ag441
ag549
ag657
ag765
ag873
ag981
ag81
ag225
ag369
ag477
ag585
ag693
asI7
(lp1775
g10
ag154
ag298
ag442
ag550
ag658
ag766
ag874
ag982
ag82
ag226
ag370
ag478
ag586
ag694
asI8
(lp1776
g11
ag155
ag299
ag443
ag551
ag659
ag767
ag875
ag983
ag83
ag227
ag371
ag479
ag587
ag695
asI9
(lp1777
g12
ag156
ag300
ag444
ag552
ag660
ag768
ag876
ag984
ag84
ag228
ag372
ag480
ag588
ag696
asI10
(lp1778
g13
ag157
ag301
ag445
ag553
ag661
ag769
ag877
ag985
ag85
ag229
ag373
ag481
ag589
ag697
asI11
(lp1779
g14
ag158
ag302
ag446
ag554
ag662
ag770
ag878
ag986
ag86
ag230
ag374
ag482
ag590
ag698
asI12
(lp1780
g15
ag159
ag303
ag447
ag555
ag663
ag771
ag879
ag987
ag87
ag231
ag375
ag483
ag591
ag699
asI13
(lp1781
g16
ag160
ag304
ag448
ag556
ag664
ag772
ag880
ag988
ag88
ag232
ag376
ag484
ag592
ag700
asI14
(lp1782
g17
ag161
ag305
ag449
ag557
ag665
ag773
ag881
ag989
ag89
ag233
ag377
ag485
ag593
ag701
asI15
(lp1783
g18
ag162
ag306
ag450
ag558
ag666
ag774
ag882
ag990
ag90
ag234
ag378
ag486
ag594
ag702
asI16
(lp1784
g19
ag163
ag307
ag451
ag559
ag667
ag775
ag883
ag991
ag91
ag235
ag379
ag487
ag595
ag703
asI17
(lp1785
g20
ag164
ag308
ag452
ag560
ag668
ag776
ag884
ag992
ag92
ag236
ag380
ag488
ag596
ag704
asI18
(lp1786
g21
ag165
ag309
ag453
ag561
ag669
ag777
ag885
ag993
ag93
ag237
ag381
ag489
ag597
ag705
asI19
(lp1787
g22
ag166
ag310
ag454
ag562
ag670
ag778
ag886
ag994
ag94
ag238
ag382
ag490
ag598
ag706
asI20
(lp1788
g23
ag167
ag311
ag455
ag563
ag671
ag779
ag887
ag995
ag95
ag239
ag383
ag491
ag599
ag707
asI21
(lp1789
g24
ag168
ag312
ag456
ag564
ag672
ag780
ag888
ag996
ag96
ag240
ag384
ag492
ag600
ag708
asI22
(lp1790
g25
ag169
ag313
ag457
ag565
ag673
ag781
ag889
ag997
ag97
ag241
ag385
ag493
ag601
ag709
asI23
(lp1791
g26
ag170
ag314
ag458
ag566
ag674
ag782
ag890
ag998
ag98
ag242
ag386
ag494
ag602
ag710
asI24
(lp1792
g27
ag171
ag315
ag459
ag567
ag675
ag783
ag891
ag999
ag99
ag243
ag387
ag495
ag603
ag711
asI25
(lp1793
g28
ag172
ag316
ag460
ag568
ag676
ag784
ag892
ag1000
ag100
ag244
ag388
ag496
ag604
ag712
asI26
(lp1794
g29
ag173
ag317
ag461
ag569
ag677
ag785
ag893
ag1001
ag101
ag245
ag389
ag497
ag605
ag713
asI27
(lp1795
g30
ag174
ag318
ag462
ag570
ag678
ag786
ag894
ag1002
ag102
ag246
ag390
ag498
ag606
ag714
asI28
(lp1796
g31
ag175
ag319
ag463
ag571
ag679
ag787
ag895
ag1003
ag103
ag247
ag391
ag499
ag607
ag715
asI29
(lp1797
g32
ag176
ag320
ag464
ag572
ag680
ag788
ag896
ag1004
ag104
ag248
ag392
ag500
ag608
ag716
asI30
(lp1798
g33
ag177
ag321
ag465
ag573
ag681
ag789
ag897
ag1005
ag105
ag249
ag393
ag501
ag609
ag717
asI31
(lp1799
g34
ag178
ag322
ag466
ag574
ag682
ag790
ag898
ag1006
ag106
ag250
ag394
ag502
ag610
ag718
asI32
(lp1800
g35
ag179
ag323
ag467
ag575
ag683
ag791
ag899
ag1007
ag107
ag251
ag395
ag503
ag611
ag719
asI33
(lp1801
g36
ag180
ag324
ag468
ag576
ag684
ag792
ag900
ag1008
ag108
ag252
ag396
ag504
ag612
ag720
asI34
(lp1802
g37
ag181
ag325
ag469
ag577
ag685
ag793
ag901
ag1009
ag109
ag253
ag397
ag505
ag613
ag721
assI345
(dp1803
I0
(lp1804
g3
ag147
ag291
ag435
ag543
ag651
ag759
ag867
ag975
ag75
ag219
ag363
ag471
ag579
ag687
ag795
ag903
ag1011
ag111
ag255
ag399
ag507
ag615
ag723
asI1
(lp1805
g4
ag148
ag292
ag436
ag544
ag652
ag760
ag868
ag976
ag76
ag220
ag364
ag472
ag580
ag688
ag796
ag904
ag1012
ag112
ag256
ag400
ag508
ag616
ag724
asI2
(lp1806
g5
ag149
ag293
ag437
ag545
ag653
ag761
ag869
ag977
ag77
ag221
ag365
ag473
ag581
ag689
ag797
ag905
ag1013
ag113
ag257
ag401
ag509
ag617
ag725
asI3
(lp1807
g6
ag150
ag294
ag438
ag546
ag654
ag762
ag870
ag978
ag78
ag222
ag366
ag474
ag582
ag690
ag798
ag906
ag1014
ag114
ag258
ag402
ag510
ag618
ag726
asI4
(lp1808
g7
ag151
ag295
ag439
ag547
ag655
ag763
ag871
ag979
ag79
ag223
ag367
ag475
ag583
ag691
ag799
ag907
ag1015
ag115
ag259
ag403
ag511
ag619
ag727
asI5
(lp1809
g8
ag152
ag296
ag440
ag548
ag656
ag764
ag872
ag980
ag80
ag224
ag368
ag476
ag584
ag692
ag800
ag908
ag1016
ag116
ag260
ag404
ag512
ag620
ag728
asI6
(lp1810
g9
ag153
ag297
ag441
ag549
ag657
ag765
ag873
ag981
ag81
ag225
ag369
ag477
ag585
ag693
ag801
ag909
ag1017
ag117
ag261
ag405
ag513
ag621
ag729
asI7
(lp1811
g10
ag154
ag298
ag442
ag550
ag658
ag766
ag874
ag982
ag82
ag226
ag370
ag478
ag586
ag694
ag802
ag910
ag1018
ag118
ag262
ag406
ag514
ag622
ag730
asI8
(lp1812
g11
ag155
ag299
ag443
ag551
ag659
ag767
ag875
ag983
ag83
ag227
ag371
ag479
ag587
ag695
ag803
ag911
ag1019
ag119
ag263
ag407
ag515
ag623
ag731
asI9
(lp1813
g12
ag156
ag300
ag444
ag552
ag660
ag768
ag876
ag984
ag84
ag228
ag372
ag480
ag588
ag696
ag804
ag912
ag1020
ag120
ag264
ag408
ag516
ag624
ag732
asI10
(lp1814
g13
ag157
ag301
ag445
ag553
ag661
ag769
ag877
ag985
ag85
ag229
ag373
ag481
ag589
ag697
ag805
ag913
ag1021
ag121
ag265
ag409
ag517
ag625
ag733
asI11
(lp1815
g14
ag158
ag302
ag446
ag554
ag662
ag770
ag878
ag986
ag86
ag230
ag374
ag482
ag590
ag698
ag806
ag914
ag1022
ag122
ag266
ag410
ag518
ag626
ag734
asI12
(lp1816
g15
ag159
ag303
ag447
ag555
ag663
ag771
ag879
ag987
ag87
ag231
ag375
ag483
ag591
ag699
ag807
ag915
ag1023
ag123
ag267
ag411
ag519
ag627
ag735
asI13
(lp1817
g16
ag160
ag304
ag448
ag556
ag664
ag772
ag880
ag988
ag88
ag232
ag376
ag484
ag592
ag700
ag808
ag916
ag1024
ag124
ag268
ag412
ag520
ag628
ag736
asI14
(lp1818
g17
ag161
ag305
ag449
ag557
ag665
ag773
ag881
ag989
ag89
ag233
ag377
ag485
ag593
ag701
ag809
ag917
ag1025
ag125
ag269
ag413
ag521
ag629
ag737
asI15
(lp1819
g18
ag162
ag306
ag450
ag558
ag666
ag774
ag882
ag990
ag90
ag234
ag378
ag486
ag594
ag702
ag810
ag918
ag1026
ag126
ag270
ag414
ag522
ag630
ag738
asI16
(lp1820
g19
ag163
ag307
ag451
ag559
ag667
ag775
ag883
ag991
ag91
ag235
ag379
ag487
ag595
ag703
ag811
ag919
ag1027
ag127
ag271
ag415
ag523
ag631
ag739
asI17
(lp1821
g20
ag164
ag308
ag452
ag560
ag668
ag776
ag884
ag992
ag92
ag236
ag380
ag488
ag596
ag704
ag812
ag920
ag1028
ag128
ag272
ag416
ag524
ag632
ag740
asI18
(lp1822
g21
ag165
ag309
ag453
ag561
ag669
ag777
ag885
ag993
ag93
ag237
ag381
ag489
ag597
ag705
ag813
ag921
ag1029
ag129
ag273
ag417
ag525
ag633
ag741
asI19
(lp1823
g22
ag166
ag310
ag454
ag562
ag670
ag778
ag886
ag994
ag94
ag238
ag382
ag490
ag598
ag706
ag814
ag922
ag1030
ag130
ag274
ag418
ag526
ag634
ag742
asI20
(lp1824
g23
ag167
ag311
ag455
ag563
ag671
ag779
ag887
ag995
ag95
ag239
ag383
ag491
ag599
ag707
ag815
ag923
ag1031
ag131
ag275
ag419
ag527
ag635
ag743
asI21
(lp1825
g24
ag168
ag312
ag456
ag564
ag672
ag780
ag888
ag996
ag96
ag240
ag384
ag492
ag600
ag708
ag816
ag924
ag1032
ag132
ag276
ag420
ag528
ag636
ag744
asI22
(lp1826
g25
ag169
ag313
ag457
ag565
ag673
ag781
ag889
ag997
ag97
ag241
ag385
ag493
ag601
ag709
ag817
ag925
ag1033
ag133
ag277
ag421
ag529
ag637
ag745
asI23
(lp1827
g26
ag170
ag314
ag458
ag566
ag674
ag782
ag890
ag998
ag98
ag242
ag386
ag494
ag602
ag710
ag818
ag926
ag1034
ag134
ag278
ag422
ag530
ag638
ag746
asI24
(lp1828
g27
ag171
ag315
ag459
ag567
ag675
ag783
ag891
ag999
ag99
ag243
ag387
ag495
ag603
ag711
ag819
ag927
ag1035
ag135
ag279
ag423
ag531
ag639
ag747
asI25
(lp1829
g28
ag172
ag316
ag460
ag568
ag676
ag784
ag892
ag1000
ag100
ag244
ag388
ag496
ag604
ag712
ag820
ag928
ag1036
ag136
ag280
ag424
ag532
ag640
ag748
asI26
(lp1830
g29
ag173
ag317
ag461
ag569
ag677
ag785
ag893
ag1001
ag101
ag245
ag389
ag497
ag605
ag713
ag821
ag929
ag1037
ag137
ag281
ag425
ag533
ag641
ag749
asI27
(lp1831
g30
ag174
ag318
ag462
ag570
ag678
ag786
ag894
ag1002
ag102
ag246
ag390
ag498
ag606
ag714
ag822
ag930
ag1038
ag138
ag282
ag426
ag534
ag642
ag750
asI28
(lp1832
g31
ag175
ag319
ag463
ag571
ag679
ag787
ag895
ag1003
ag103
ag247
ag391
ag499
ag607
ag715
ag823
ag931
ag1039
ag139
ag283
ag427
ag535
ag643
ag751
asI29
(lp1833
g32
ag176
ag320
ag464
ag572
ag680
ag788
ag896
ag1004
ag104
ag248
ag392
ag500
ag608
ag716
ag824
ag932
ag1040
ag140
ag284
ag428
ag536
ag644
ag752
asI30
(lp1834
g33
ag177
ag321
ag465
ag573
ag681
ag789
ag897
ag1005
ag105
ag249
ag393
ag501
ag609
ag717
ag825
ag933
ag1041
ag141
ag285
ag429
ag537
ag645
ag753
asI31
(lp1835
g34
ag178
ag322
ag466
ag574
ag682
ag790
ag898
ag1006
ag106
ag250
ag394
ag502
ag610
ag718
ag826
ag934
ag1042
ag142
ag286
ag430
ag538
ag646
ag754
asI32
(lp1836
g35
ag179
ag323
ag467
ag575
ag683
ag791
ag899
ag1007
ag107
ag251
ag395
ag503
ag611
ag719
ag827
ag935
ag1043
ag143
ag287
ag431
ag539
ag647
ag755
asI33
(lp1837
g36
ag180
ag324
ag468
ag576
ag684
ag792
ag900
ag1008
ag108
ag252
ag396
ag504
ag612
ag720
ag828
ag936
ag1044
ag144
ag288
ag432
ag540
ag648
ag756
asI34
(lp1838
g37
ag181
ag325
ag469
ag577
ag685
ag793
ag901
ag1009
ag109
ag253
ag397
ag505
ag613
ag721
ag829
ag937
ag1045
ag145
ag289
ag433
ag541
ag649
ag757
assI90
(dp1839
I0
(lp1840
g3
ag147
ag291
ag435
ag543
ag651
ag759
asI1
(lp1841
g4
ag148
ag292
ag436
ag544
ag652
ag760
asI2
(lp1842
g5
ag149
ag293
ag437
ag545
ag653
ag761
asI3
(lp1843
g6
ag150
ag294
ag438
ag546
ag654
ag762
asI4
(lp1844
g7
ag151
ag295
ag439
ag547
ag655
ag763
asI5
(lp1845
g8
ag152
ag296
ag440
ag548
ag656
ag764
asI6
(lp1846
g9
ag153
ag297
ag441
ag549
ag657
ag765
asI7
(lp1847
g10
ag154
ag298
ag442
ag550
ag658
ag766
asI8
(lp1848
g11
ag155
ag299
ag443
ag551
ag659
ag767
asI9
(lp1849
g12
ag156
ag300
ag444
ag552
ag660
ag768
asI10
(lp1850
g13
ag157
ag301
ag445
ag553
ag661
ag769
asI11
(lp1851
g14
ag158
ag302
ag446
ag554
ag662
ag770
asI12
(lp1852
g15
ag159
ag303
ag447
ag555
ag663
ag771
asI13
(lp1853
g16
ag160
ag304
ag448
ag556
ag664
ag772
asI14
(lp1854
g17
ag161
ag305
ag449
ag557
ag665
ag773
asI15
(lp1855
g18
ag162
ag306
ag450
ag558
ag666
ag774
asI16
(lp1856
g19
ag163
ag307
ag451
ag559
ag667
ag775
asI17
(lp1857
g20
ag164
ag308
ag452
ag560
ag668
ag776
asI18
(lp1858
g21
ag165
ag309
ag453
ag561
ag669
ag777
asI19
(lp1859
g22
ag166
ag310
ag454
ag562
ag670
ag778
asI20
(lp1860
g23
ag167
ag311
ag455
ag563
ag671
ag779
asI21
(lp1861
g24
ag168
ag312
ag456
ag564
ag672
ag780
asI22
(lp1862
g25
ag169
ag313
ag457
ag565
ag673
ag781
asI23
(lp1863
g26
ag170
ag314
ag458
ag566
ag674
ag782
asI24
(lp1864
g27
ag171
ag315
ag459
ag567
ag675
ag783
asI25
(lp1865
g28
ag172
ag316
ag460
ag568
ag676
ag784
asI26
(lp1866
g29
ag173
ag317
ag461
ag569
ag677
ag785
asI27
(lp1867
g30
ag174
ag318
ag462
ag570
ag678
ag786
asI28
(lp1868
g31
ag175
ag319
ag463
ag571
ag679
ag787
asI29
(lp1869
g32
ag176
ag320
ag464
ag572
ag680
ag788
asI30
(lp1870
g33
ag177
ag321
ag465
ag573
ag681
ag789
asI31
(lp1871
g34
ag178
ag322
ag466
ag574
ag682
ag790
asI32
(lp1872
g35
ag179
ag323
ag467
ag575
ag683
ag791
asI33
(lp1873
g36
ag180
ag324
ag468
ag576
ag684
ag792
asI34
(lp1874
g37
ag181
ag325
ag469
ag577
ag685
ag793
assI225
(dp1875
I0
(lp1876
g3
ag147
ag291
ag435
ag543
ag651
ag759
ag867
ag975
ag75
ag219
ag363
ag471
ag579
ag687
ag795
asI1
(lp1877
g4
ag148
ag292
ag436
ag544
ag652
ag760
ag868
ag976
ag76
ag220
ag364
ag472
ag580
ag688
ag796
asI2
(lp1878
g5
ag149
ag293
ag437
ag545
ag653
ag761
ag869
ag977
ag77
ag221
ag365
ag473
ag581
ag689
ag797
asI3
(lp1879
g6
ag150
ag294
ag438
ag546
ag654
ag762
ag870
ag978
ag78
ag222
ag366
ag474
ag582
ag690
ag798
asI4
(lp1880
g7
ag151
ag295
ag439
ag547
ag655
ag763
ag871
ag979
ag79
ag223
ag367
ag475
ag583
ag691
ag799
asI5
(lp1881
g8
ag152
ag296
ag440
ag548
ag656
ag764
ag872
ag980
ag80
ag224
ag368
ag476
ag584
ag692
ag800
asI6
(lp1882
g9
ag153
ag297
ag441
ag549
ag657
ag765
ag873
ag981
ag81
ag225
ag369
ag477
ag585
ag693
ag801
asI7
(lp1883
g10
ag154
ag298
ag442
ag550
ag658
ag766
ag874
ag982
ag82
ag226
ag370
ag478
ag586
ag694
ag802
asI8
(lp1884
g11
ag155
ag299
ag443
ag551
ag659
ag767
ag875
ag983
ag83
ag227
ag371
ag479
ag587
ag695
ag803
asI9
(lp1885
g12
ag156
ag300
ag444
ag552
ag660
ag768
ag876
ag984
ag84
ag228
ag372
ag480
ag588
ag696
ag804
asI10
(lp1886
g13
ag157
ag301
ag445
ag553
ag661
ag769
ag877
ag985
ag85
ag229
ag373
ag481
ag589
ag697
ag805
asI11
(lp1887
g14
ag158
ag302
ag446
ag554
ag662
ag770
ag878
ag986
ag86
ag230
ag374
ag482
ag590
ag698
ag806
asI12
(lp1888
g15
ag159
ag303
ag447
ag555
ag663
ag771
ag879
ag987
ag87
ag231
ag375
ag483
ag591
ag699
ag807
asI13
(lp1889
g16
ag160
ag304
ag448
ag556
ag664
ag772
ag880
ag988
ag88
ag232
ag376
ag484
ag592
ag700
ag808
asI14
(lp1890
g17
ag161
ag305
ag449
ag557
ag665
ag773
ag881
ag989
ag89
ag233
ag377
ag485
ag593
ag701
ag809
asI15
(lp1891
g18
ag162
ag306
ag450
ag558
ag666
ag774
ag882
ag990
ag90
ag234
ag378
ag486
ag594
ag702
ag810
asI16
(lp1892
g19
ag163
ag307
ag451
ag559
ag667
ag775
ag883
ag991
ag91
ag235
ag379
ag487
ag595
ag703
ag811
asI17
(lp1893
g20
ag164
ag308
ag452
ag560
ag668
ag776
ag884
ag992
ag92
ag236
ag380
ag488
ag596
ag704
ag812
asI18
(lp1894
g21
ag165
ag309
ag453
ag561
ag669
ag777
ag885
ag993
ag93
ag237
ag381
ag489
ag597
ag705
ag813
asI19
(lp1895
g22
ag166
ag310
ag454
ag562
ag670
ag778
ag886
ag994
ag94
ag238
ag382
ag490
ag598
ag706
ag814
asI20
(lp1896
g23
ag167
ag311
ag455
ag563
ag671
ag779
ag887
ag995
ag95
ag239
ag383
ag491
ag599
ag707
ag815
asI21
(lp1897
g24
ag168
ag312
ag456
ag564
ag672
ag780
ag888
ag996
ag96
ag240
ag384
ag492
ag600
ag708
ag816
asI22
(lp1898
g25
ag169
ag313
ag457
ag565
ag673
ag781
ag889
ag997
ag97
ag241
ag385
ag493
ag601
ag709
ag817
asI23
(lp1899
g26
ag170
ag314
ag458
ag566
ag674
ag782
ag890
ag998
ag98
ag242
ag386
ag494
ag602
ag710
ag818
asI24
(lp1900
g27
ag171
ag315
ag459
ag567
ag675
ag783
ag891
ag999
ag99
ag243
ag387
ag495
ag603
ag711
ag819
asI25
(lp1901
g28
ag172
ag316
ag460
ag568
ag676
ag784
ag892
ag1000
ag100
ag244
ag388
ag496
ag604
ag712
ag820
asI26
(lp1902
g29
ag173
ag317
ag461
ag569
ag677
ag785
ag893
ag1001
ag101
ag245
ag389
ag497
ag605
ag713
ag821
asI27
(lp1903
g30
ag174
ag318
ag462
ag570
ag678
ag786
ag894
ag1002
ag102
ag246
ag390
ag498
ag606
ag714
ag822
asI28
(lp1904
g31
ag175
ag319
ag463
ag571
ag679
ag787
ag895
ag1003
ag103
ag247
ag391
ag499
ag607
ag715
ag823
asI29
(lp1905
g32
ag176
ag320
ag464
ag572
ag680
ag788
ag896
ag1004
ag104
ag248
ag392
ag500
ag608
ag716
ag824
asI30
(lp1906
g33
ag177
ag321
ag465
ag573
ag681
ag789
ag897
ag1005
ag105
ag249
ag393
ag501
ag609
ag717
ag825
asI31
(lp1907
g34
ag178
ag322
ag466
ag574
ag682
ag790
ag898
ag1006
ag106
ag250
ag394
ag502
ag610
ag718
ag826
asI32
(lp1908
g35
ag179
ag323
ag467
ag575
ag683
ag791
ag899
ag1007
ag107
ag251
ag395
ag503
ag611
ag719
ag827
asI33
(lp1909
g36
ag180
ag324
ag468
ag576
ag684
ag792
ag900
ag1008
ag108
ag252
ag396
ag504
ag612
ag720
ag828
asI34
(lp1910
g37
ag181
ag325
ag469
ag577
ag685
ag793
ag901
ag1009
ag109
ag253
ag397
ag505
ag613
ag721
ag829
assI360
(dp1911
I0
(lp1912
g3
ag147
ag291
ag435
ag543
ag651
ag759
ag867
ag975
ag75
ag219
ag363
ag471
ag579
ag687
ag795
ag903
ag1011
ag111
ag255
ag399
ag507
ag615
ag723
ag831
asI1
(lp1913
g4
ag148
ag292
ag436
ag544
ag652
ag760
ag868
ag976
ag76
ag220
ag364
ag472
ag580
ag688
ag796
ag904
ag1012
ag112
ag256
ag400
ag508
ag616
ag724
ag832
asI2
(lp1914
g5
ag149
ag293
ag437
ag545
ag653
ag761
ag869
ag977
ag77
ag221
ag365
ag473
ag581
ag689
ag797
ag905
ag1013
ag113
ag257
ag401
ag509
ag617
ag725
ag833
asI3
(lp1915
g6
ag150
ag294
ag438
ag546
ag654
ag762
ag870
ag978
ag78
ag222
ag366
ag474
ag582
ag690
ag798
ag906
ag1014
ag114
ag258
ag402
ag510
ag618
ag726
ag834
asI4
(lp1916
g7
ag151
ag295
ag439
ag547
ag655
ag763
ag871
ag979
ag79
ag223
ag367
ag475
ag583
ag691
ag799
ag907
ag1015
ag115
ag259
ag403
ag511
ag619
ag727
ag835
asI5
(lp1917
g8
ag152
ag296
ag440
ag548
ag656
ag764
ag872
ag980
ag80
ag224
ag368
ag476
ag584
ag692
ag800
ag908
ag1016
ag116
ag260
ag404
ag512
ag620
ag728
ag836
asI6
(lp1918
g9
ag153
ag297
ag441
ag549
ag657
ag765
ag873
ag981
ag81
ag225
ag369
ag477
ag585
ag693
ag801
ag909
ag1017
ag117
ag261
ag405
ag513
ag621
ag729
ag837
asI7
(lp1919
g10
ag154
ag298
ag442
ag550
ag658
ag766
ag874
ag982
ag82
ag226
ag370
ag478
ag586
ag694
ag802
ag910
ag1018
ag118
ag262
ag406
ag514
ag622
ag730
ag838
asI8
(lp1920
g11
ag155
ag299
ag443
ag551
ag659
ag767
ag875
ag983
ag83
ag227
ag371
ag479
ag587
ag695
ag803
ag911
ag1019
ag119
ag263
ag407
ag515
ag623
ag731
ag839
asI9
(lp1921
g12
ag156
ag300
ag444
ag552
ag660
ag768
ag876
ag984
ag84
ag228
ag372
ag480
ag588
ag696
ag804
ag912
ag1020
ag120
ag264
ag408
ag516
ag624
ag732
ag840
asI10
(lp1922
g13
ag157
ag301
ag445
ag553
ag661
ag769
ag877
ag985
ag85
ag229
ag373
ag481
ag589
ag697
ag805
ag913
ag1021
ag121
ag265
ag409
ag517
ag625
ag733
ag841
asI11
(lp1923
g14
ag158
ag302
ag446
ag554
ag662
ag770
ag878
ag986
ag86
ag230
ag374
ag482
ag590
ag698
ag806
ag914
ag1022
ag122
ag266
ag410
ag518
ag626
ag734
ag842
asI12
(lp1924
g15
ag159
ag303
ag447
ag555
ag663
ag771
ag879
ag987
ag87
ag231
ag375
ag483
ag591
ag699
ag807
ag915
ag1023
ag123
ag267
ag411
ag519
ag627
ag735
ag843
asI13
(lp1925
g16
ag160
ag304
ag448
ag556
ag664
ag772
ag880
ag988
ag88
ag232
ag376
ag484
ag592
ag700
ag808
ag916
ag1024
ag124
ag268
ag412
ag520
ag628
ag736
ag844
asI14
(lp1926
g17
ag161
ag305
ag449
ag557
ag665
ag773
ag881
ag989
ag89
ag233
ag377
ag485
ag593
ag701
ag809
ag917
ag1025
ag125
ag269
ag413
ag521
ag629
ag737
ag845
asI15
(lp1927
g18
ag162
ag306
ag450
ag558
ag666
ag774
ag882
ag990
ag90
ag234
ag378
ag486
ag594
ag702
ag810
ag918
ag1026
ag126
ag270
ag414
ag522
ag630
ag738
ag846
asI16
(lp1928
g19
ag163
ag307
ag451
ag559
ag667
ag775
ag883
ag991
ag91
ag235
ag379
ag487
ag595
ag703
ag811
ag919
ag1027
ag127
ag271
ag415
ag523
ag631
ag739
ag847
asI17
(lp1929
g20
ag164
ag308
ag452
ag560
ag668
ag776
ag884
ag992
ag92
ag236
ag380
ag488
ag596
ag704
ag812
ag920
ag1028
ag128
ag272
ag416
ag524
ag632
ag740
ag848
asI18
(lp1930
g21
ag165
ag309
ag453
ag561
ag669
ag777
ag885
ag993
ag93
ag237
ag381
ag489
ag597
ag705
ag813
ag921
ag1029
ag129
ag273
ag417
ag525
ag633
ag741
ag849
asI19
(lp1931
g22
ag166
ag310
ag454
ag562
ag670
ag778
ag886
ag994
ag94
ag238
ag382
ag490
ag598
ag706
ag814
ag922
ag1030
ag130
ag274
ag418
ag526
ag634
ag742
ag850
asI20
(lp1932
g23
ag167
ag311
ag455
ag563
ag671
ag779
ag887
ag995
ag95
ag239
ag383
ag491
ag599
ag707
ag815
ag923
ag1031
ag131
ag275
ag419
ag527
ag635
ag743
ag851
asI21
(lp1933
g24
ag168
ag312
ag456
ag564
ag672
ag780
ag888
ag996
ag96
ag240
ag384
ag492
ag600
ag708
ag816
ag924
ag1032
ag132
ag276
ag420
ag528
ag636
ag744
ag852
asI22
(lp1934
g25
ag169
ag313
ag457
ag565
ag673
ag781
ag889
ag997
ag97
ag241
ag385
ag493
ag601
ag709
ag817
ag925
ag1033
ag133
ag277
ag421
ag529
ag637
ag745
ag853
asI23
(lp1935
g26
ag170
ag314
ag458
ag566
ag674
ag782
ag890
ag998
ag98
ag242
ag386
ag494
ag602
ag710
ag818
ag926
ag1034
ag134
ag278
ag422
ag530
ag638
ag746
ag854
asI24
(lp1936
g27
ag171
ag315
ag459
ag567
ag675
ag783
ag891
ag999
ag99
ag243
ag387
ag495
ag603
ag711
ag819
ag927
ag1035
ag135
ag279
ag423
ag531
ag639
ag747
ag855
asI25
(lp1937
g28
ag172
ag316
ag460
ag568
ag676
ag784
ag892
ag1000
ag100
ag244
ag388
ag496
ag604
ag712
ag820
ag928
ag1036
ag136
ag280
ag424
ag532
ag640
ag748
ag856
asI26
(lp1938
g29
ag173
ag317
ag461
ag569
ag677
ag785
ag893
ag1001
ag101
ag245
ag389
ag497
ag605
ag713
ag821
ag929
ag1037
ag137
ag281
ag425
ag533
ag641
ag749
ag857
asI27
(lp1939
g30
ag174
ag318
ag462
ag570
ag678
ag786
ag894
ag1002
ag102
ag246
ag390
ag498
ag606
ag714
ag822
ag930
ag1038
ag138
ag282
ag426
ag534
ag642
ag750
ag858
asI28
(lp1940
g31
ag175
ag319
ag463
ag571
ag679
ag787
ag895
ag1003
ag103
ag247
ag391
ag499
ag607
ag715
ag823
ag931
ag1039
ag139
ag283
ag427
ag535
ag643
ag751
ag859
asI29
(lp1941
g32
ag176
ag320
ag464
ag572
ag680
ag788
ag896
ag1004
ag104
ag248
ag392
ag500
ag608
ag716
ag824
ag932
ag1040
ag140
ag284
ag428
ag536
ag644
ag752
ag860
asI30
(lp1942
g33
ag177
ag321
ag465
ag573
ag681
ag789
ag897
ag1005
ag105
ag249
ag393
ag501
ag609
ag717
ag825
ag933
ag1041
ag141
ag285
ag429
ag537
ag645
ag753
ag861
asI31
(lp1943
g34
ag178
ag322
ag466
ag574
ag682
ag790
ag898
ag1006
ag106
ag250
ag394
ag502
ag610
ag718
ag826
ag934
ag1042
ag142
ag286
ag430
ag538
ag646
ag754
ag862
asI32
(lp1944
g35
ag179
ag323
ag467
ag575
ag683
ag791
ag899
ag1007
ag107
ag251
ag395
ag503
ag611
ag719
ag827
ag935
ag1043
ag143
ag287
ag431
ag539
ag647
ag755
ag863
asI33
(lp1945
g36
ag180
ag324
ag468
ag576
ag684
ag792
ag900
ag1008
ag108
ag252
ag396
ag504
ag612
ag720
ag828
ag936
ag1044
ag144
ag288
ag432
ag540
ag648
ag756
ag864
asI34
(lp1946
g37
ag181
ag325
ag469
ag577
ag685
ag793
ag901
ag1009
ag109
ag253
ag397
ag505
ag613
ag721
ag829
ag937
ag1045
ag145
ag289
ag433
ag541
ag649
ag757
ag865
assI105
(dp1947
I0
(lp1948
g3
ag147
ag291
ag435
ag543
ag651
ag759
ag867
asI1
(lp1949
g4
ag148
ag292
ag436
ag544
ag652
ag760
ag868
asI2
(lp1950
g5
ag149
ag293
ag437
ag545
ag653
ag761
ag869
asI3
(lp1951
g6
ag150
ag294
ag438
ag546
ag654
ag762
ag870
asI4
(lp1952
g7
ag151
ag295
ag439
ag547
ag655
ag763
ag871
asI5
(lp1953
g8
ag152
ag296
ag440
ag548
ag656
ag764
ag872
asI6
(lp1954
g9
ag153
ag297
ag441
ag549
ag657
ag765
ag873
asI7
(lp1955
g10
ag154
ag298
ag442
ag550
ag658
ag766
ag874
asI8
(lp1956
g11
ag155
ag299
ag443
ag551
ag659
ag767
ag875
asI9
(lp1957
g12
ag156
ag300
ag444
ag552
ag660
ag768
ag876
asI10
(lp1958
g13
ag157
ag301
ag445
ag553
ag661
ag769
ag877
asI11
(lp1959
g14
ag158
ag302
ag446
ag554
ag662
ag770
ag878
asI12
(lp1960
g15
ag159
ag303
ag447
ag555
ag663
ag771
ag879
asI13
(lp1961
g16
ag160
ag304
ag448
ag556
ag664
ag772
ag880
asI14
(lp1962
g17
ag161
ag305
ag449
ag557
ag665
ag773
ag881
asI15
(lp1963
g18
ag162
ag306
ag450
ag558
ag666
ag774
ag882
asI16
(lp1964
g19
ag163
ag307
ag451
ag559
ag667
ag775
ag883
asI17
(lp1965
g20
ag164
ag308
ag452
ag560
ag668
ag776
ag884
asI18
(lp1966
g21
ag165
ag309
ag453
ag561
ag669
ag777
ag885
asI19
(lp1967
g22
ag166
ag310
ag454
ag562
ag670
ag778
ag886
asI20
(lp1968
g23
ag167
ag311
ag455
ag563
ag671
ag779
ag887
asI21
(lp1969
g24
ag168
ag312
ag456
ag564
ag672
ag780
ag888
asI22
(lp1970
g25
ag169
ag313
ag457
ag565
ag673
ag781
ag889
asI23
(lp1971
g26
ag170
ag314
ag458
ag566
ag674
ag782
ag890
asI24
(lp1972
g27
ag171
ag315
ag459
ag567
ag675
ag783
ag891
asI25
(lp1973
g28
ag172
ag316
ag460
ag568
ag676
ag784
ag892
asI26
(lp1974
g29
ag173
ag317
ag461
ag569
ag677
ag785
ag893
asI27
(lp1975
g30
ag174
ag318
ag462
ag570
ag678
ag786
ag894
asI28
(lp1976
g31
ag175
ag319
ag463
ag571
ag679
ag787
ag895
asI29
(lp1977
g32
ag176
ag320
ag464
ag572
ag680
ag788
ag896
asI30
(lp1978
g33
ag177
ag321
ag465
ag573
ag681
ag789
ag897
asI31
(lp1979
g34
ag178
ag322
ag466
ag574
ag682
ag790
ag898
asI32
(lp1980
g35
ag179
ag323
ag467
ag575
ag683
ag791
ag899
asI33
(lp1981
g36
ag180
ag324
ag468
ag576
ag684
ag792
ag900
asI34
(lp1982
g37
ag181
ag325
ag469
ag577
ag685
ag793
ag901
assI240
(dp1983
I0
(lp1984
g3
ag147
ag291
ag435
ag543
ag651
ag759
ag867
ag975
ag75
ag219
ag363
ag471
ag579
ag687
ag795
ag903
asI1
(lp1985
g4
ag148
ag292
ag436
ag544
ag652
ag760
ag868
ag976
ag76
ag220
ag364
ag472
ag580
ag688
ag796
ag904
asI2
(lp1986
g5
ag149
ag293
ag437
ag545
ag653
ag761
ag869
ag977
ag77
ag221
ag365
ag473
ag581
ag689
ag797
ag905
asI3
(lp1987
g6
ag150
ag294
ag438
ag546
ag654
ag762
ag870
ag978
ag78
ag222
ag366
ag474
ag582
ag690
ag798
ag906
asI4
(lp1988
g7
ag151
ag295
ag439
ag547
ag655
ag763
ag871
ag979
ag79
ag223
ag367
ag475
ag583
ag691
ag799
ag907
asI5
(lp1989
g8
ag152
ag296
ag440
ag548
ag656
ag764
ag872
ag980
ag80
ag224
ag368
ag476
ag584
ag692
ag800
ag908
asI6
(lp1990
g9
ag153
ag297
ag441
ag549
ag657
ag765
ag873
ag981
ag81
ag225
ag369
ag477
ag585
ag693
ag801
ag909
asI7
(lp1991
g10
ag154
ag298
ag442
ag550
ag658
ag766
ag874
ag982
ag82
ag226
ag370
ag478
ag586
ag694
ag802
ag910
asI8
(lp1992
g11
ag155
ag299
ag443
ag551
ag659
ag767
ag875
ag983
ag83
ag227
ag371
ag479
ag587
ag695
ag803
ag911
asI9
(lp1993
g12
ag156
ag300
ag444
ag552
ag660
ag768
ag876
ag984
ag84
ag228
ag372
ag480
ag588
ag696
ag804
ag912
asI10
(lp1994
g13
ag157
ag301
ag445
ag553
ag661
ag769
ag877
ag985
ag85
ag229
ag373
ag481
ag589
ag697
ag805
ag913
asI11
(lp1995
g14
ag158
ag302
ag446
ag554
ag662
ag770
ag878
ag986
ag86
ag230
ag374
ag482
ag590
ag698
ag806
ag914
asI12
(lp1996
g15
ag159
ag303
ag447
ag555
ag663
ag771
ag879
ag987
ag87
ag231
ag375
ag483
ag591
ag699
ag807
ag915
asI13
(lp1997
g16
ag160
ag304
ag448
ag556
ag664
ag772
ag880
ag988
ag88
ag232
ag376
ag484
ag592
ag700
ag808
ag916
asI14
(lp1998
g17
ag161
ag305
ag449
ag557
ag665
ag773
ag881
ag989
ag89
ag233
ag377
ag485
ag593
ag701
ag809
ag917
asI15
(lp1999
g18
ag162
ag306
ag450
ag558
ag666
ag774
ag882
ag990
ag90
ag234
ag378
ag486
ag594
ag702
ag810
ag918
asI16
(lp2000
g19
ag163
ag307
ag451
ag559
ag667
ag775
ag883
ag991
ag91
ag235
ag379
ag487
ag595
ag703
ag811
ag919
asI17
(lp2001
g20
ag164
ag308
ag452
ag560
ag668
ag776
ag884
ag992
ag92
ag236
ag380
ag488
ag596
ag704
ag812
ag920
asI18
(lp2002
g21
ag165
ag309
ag453
ag561
ag669
ag777
ag885
ag993
ag93
ag237
ag381
ag489
ag597
ag705
ag813
ag921
asI19
(lp2003
g22
ag166
ag310
ag454
ag562
ag670
ag778
ag886
ag994
ag94
ag238
ag382
ag490
ag598
ag706
ag814
ag922
asI20
(lp2004
g23
ag167
ag311
ag455
ag563
ag671
ag779
ag887
ag995
ag95
ag239
ag383
ag491
ag599
ag707
ag815
ag923
asI21
(lp2005
g24
ag168
ag312
ag456
ag564
ag672
ag780
ag888
ag996
ag96
ag240
ag384
ag492
ag600
ag708
ag816
ag924
asI22
(lp2006
g25
ag169
ag313
ag457
ag565
ag673
ag781
ag889
ag997
ag97
ag241
ag385
ag493
ag601
ag709
ag817
ag925
asI23
(lp2007
g26
ag170
ag314
ag458
ag566
ag674
ag782
ag890
ag998
ag98
ag242
ag386
ag494
ag602
ag710
ag818
ag926
asI24
(lp2008
g27
ag171
ag315
ag459
ag567
ag675
ag783
ag891
ag999
ag99
ag243
ag387
ag495
ag603
ag711
ag819
ag927
asI25
(lp2009
g28
ag172
ag316
ag460
ag568
ag676
ag784
ag892
ag1000
ag100
ag244
ag388
ag496
ag604
ag712
ag820
ag928
asI26
(lp2010
g29
ag173
ag317
ag461
ag569
ag677
ag785
ag893
ag1001
ag101
ag245
ag389
ag497
ag605
ag713
ag821
ag929
asI27
(lp2011
g30
ag174
ag318
ag462
ag570
ag678
ag786
ag894
ag1002
ag102
ag246
ag390
ag498
ag606
ag714
ag822
ag930
asI28
(lp2012
g31
ag175
ag319
ag463
ag571
ag679
ag787
ag895
ag1003
ag103
ag247
ag391
ag499
ag607
ag715
ag823
ag931
asI29
(lp2013
g32
ag176
ag320
ag464
ag572
ag680
ag788
ag896
ag1004
ag104
ag248
ag392
ag500
ag608
ag716
ag824
ag932
asI30
(lp2014
g33
ag177
ag321
ag465
ag573
ag681
ag789
ag897
ag1005
ag105
ag249
ag393
ag501
ag609
ag717
ag825
ag933
asI31
(lp2015
g34
ag178
ag322
ag466
ag574
ag682
ag790
ag898
ag1006
ag106
ag250
ag394
ag502
ag610
ag718
ag826
ag934
asI32
(lp2016
g35
ag179
ag323
ag467
ag575
ag683
ag791
ag899
ag1007
ag107
ag251
ag395
ag503
ag611
ag719
ag827
ag935
asI33
(lp2017
g36
ag180
ag324
ag468
ag576
ag684
ag792
ag900
ag1008
ag108
ag252
ag396
ag504
ag612
ag720
ag828
ag936
asI34
(lp2018
g37
ag181
ag325
ag469
ag577
ag685
ag793
ag901
ag1009
ag109
ag253
ag397
ag505
ag613
ag721
ag829
ag937
assI375
(dp2019
I0
(lp2020
g3
ag147
ag291
ag435
ag543
ag651
ag759
ag867
ag975
ag75
ag219
ag363
ag471
ag579
ag687
ag795
ag903
ag1011
ag111
ag255
ag399
ag507
ag615
ag723
ag831
ag939
asI1
(lp2021
g4
ag148
ag292
ag436
ag544
ag652
ag760
ag868
ag976
ag76
ag220
ag364
ag472
ag580
ag688
ag796
ag904
ag1012
ag112
ag256
ag400
ag508
ag616
ag724
ag832
ag940
asI2
(lp2022
g5
ag149
ag293
ag437
ag545
ag653
ag761
ag869
ag977
ag77
ag221
ag365
ag473
ag581
ag689
ag797
ag905
ag1013
ag113
ag257
ag401
ag509
ag617
ag725
ag833
ag941
asI3
(lp2023
g6
ag150
ag294
ag438
ag546
ag654
ag762
ag870
ag978
ag78
ag222
ag366
ag474
ag582
ag690
ag798
ag906
ag1014
ag114
ag258
ag402
ag510
ag618
ag726
ag834
ag942
asI4
(lp2024
g7
ag151
ag295
ag439
ag547
ag655
ag763
ag871
ag979
ag79
ag223
ag367
ag475
ag583
ag691
ag799
ag907
ag1015
ag115
ag259
ag403
ag511
ag619
ag727
ag835
ag943
asI5
(lp2025
g8
ag152
ag296
ag440
ag548
ag656
ag764
ag872
ag980
ag80
ag224
ag368
ag476
ag584
ag692
ag800
ag908
ag1016
ag116
ag260
ag404
ag512
ag620
ag728
ag836
ag944
asI6
(lp2026
g9
ag153
ag297
ag441
ag549
ag657
ag765
ag873
ag981
ag81
ag225
ag369
ag477
ag585
ag693
ag801
ag909
ag1017
ag117
ag261
ag405
ag513
ag621
ag729
ag837
ag945
asI7
(lp2027
g10
ag154
ag298
ag442
ag550
ag658
ag766
ag874
ag982
ag82
ag226
ag370
ag478
ag586
ag694
ag802
ag910
ag1018
ag118
ag262
ag406
ag514
ag622
ag730
ag838
ag946
asI8
(lp2028
g11
ag155
ag299
ag443
ag551
ag659
ag767
ag875
ag983
ag83
ag227
ag371
ag479
ag587
ag695
ag803
ag911
ag1019
ag119
ag263
ag407
ag515
ag623
ag731
ag839
ag947
asI9
(lp2029
g12
ag156
ag300
ag444
ag552
ag660
ag768
ag876
ag984
ag84
ag228
ag372
ag480
ag588
ag696
ag804
ag912
ag1020
ag120
ag264
ag408
ag516
ag624
ag732
ag840
ag948
asI10
(lp2030
g13
ag157
ag301
ag445
ag553
ag661
ag769
ag877
ag985
ag85
ag229
ag373
ag481
ag589
ag697
ag805
ag913
ag1021
ag121
ag265
ag409
ag517
ag625
ag733
ag841
ag949
asI11
(lp2031
g14
ag158
ag302
ag446
ag554
ag662
ag770
ag878
ag986
ag86
ag230
ag374
ag482
ag590
ag698
ag806
ag914
ag1022
ag122
ag266
ag410
ag518
ag626
ag734
ag842
ag950
asI12
(lp2032
g15
ag159
ag303
ag447
ag555
ag663
ag771
ag879
ag987
ag87
ag231
ag375
ag483
ag591
ag699
ag807
ag915
ag1023
ag123
ag267
ag411
ag519
ag627
ag735
ag843
ag951
asI13
(lp2033
g16
ag160
ag304
ag448
ag556
ag664
ag772
ag880
ag988
ag88
ag232
ag376
ag484
ag592
ag700
ag808
ag916
ag1024
ag124
ag268
ag412
ag520
ag628
ag736
ag844
ag952
asI14
(lp2034
g17
ag161
ag305
ag449
ag557
ag665
ag773
ag881
ag989
ag89
ag233
ag377
ag485
ag593
ag701
ag809
ag917
ag1025
ag125
ag269
ag413
ag521
ag629
ag737
ag845
ag953
asI15
(lp2035
g18
ag162
ag306
ag450
ag558
ag666
ag774
ag882
ag990
ag90
ag234
ag378
ag486
ag594
ag702
ag810
ag918
ag1026
ag126
ag270
ag414
ag522
ag630
ag738
ag846
ag954
asI16
(lp2036
g19
ag163
ag307
ag451
ag559
ag667
ag775
ag883
ag991
ag91
ag235
ag379
ag487
ag595
ag703
ag811
ag919
ag1027
ag127
ag271
ag415
ag523
ag631
ag739
ag847
ag955
asI17
(lp2037
g20
ag164
ag308
ag452
ag560
ag668
ag776
ag884
ag992
ag92
ag236
ag380
ag488
ag596
ag704
ag812
ag920
ag1028
ag128
ag272
ag416
ag524
ag632
ag740
ag848
ag956
asI18
(lp2038
g21
ag165
ag309
ag453
ag561
ag669
ag777
ag885
ag993
ag93
ag237
ag381
ag489
ag597
ag705
ag813
ag921
ag1029
ag129
ag273
ag417
ag525
ag633
ag741
ag849
ag957
asI19
(lp2039
g22
ag166
ag310
ag454
ag562
ag670
ag778
ag886
ag994
ag94
ag238
ag382
ag490
ag598
ag706
ag814
ag922
ag1030
ag130
ag274
ag418
ag526
ag634
ag742
ag850
ag958
asI20
(lp2040
g23
ag167
ag311
ag455
ag563
ag671
ag779
ag887
ag995
ag95
ag239
ag383
ag491
ag599
ag707
ag815
ag923
ag1031
ag131
ag275
ag419
ag527
ag635
ag743
ag851
ag959
asI21
(lp2041
g24
ag168
ag312
ag456
ag564
ag672
ag780
ag888
ag996
ag96
ag240
ag384
ag492
ag600
ag708
ag816
ag924
ag1032
ag132
ag276
ag420
ag528
ag636
ag744
ag852
ag960
asI22
(lp2042
g25
ag169
ag313
ag457
ag565
ag673
ag781
ag889
ag997
ag97
ag241
ag385
ag493
ag601
ag709
ag817
ag925
ag1033
ag133
ag277
ag421
ag529
ag637
ag745
ag853
ag961
asI23
(lp2043
g26
ag170
ag314
ag458
ag566
ag674
ag782
ag890
ag998
ag98
ag242
ag386
ag494
ag602
ag710
ag818
ag926
ag1034
ag134
ag278
ag422
ag530
ag638
ag746
ag854
ag962
asI24
(lp2044
g27
ag171
ag315
ag459
ag567
ag675
ag783
ag891
ag999
ag99
ag243
ag387
ag495
ag603
ag711
ag819
ag927
ag1035
ag135
ag279
ag423
ag531
ag639
ag747
ag855
ag963
asI25
(lp2045
g28
ag172
ag316
ag460
ag568
ag676
ag784
ag892
ag1000
ag100
ag244
ag388
ag496
ag604
ag712
ag820
ag928
ag1036
ag136
ag280
ag424
ag532
ag640
ag748
ag856
ag964
asI26
(lp2046
g29
ag173
ag317
ag461
ag569
ag677
ag785
ag893
ag1001
ag101
ag245
ag389
ag497
ag605
ag713
ag821
ag929
ag1037
ag137
ag281
ag425
ag533
ag641
ag749
ag857
ag965
asI27
(lp2047
g30
ag174
ag318
ag462
ag570
ag678
ag786
ag894
ag1002
ag102
ag246
ag390
ag498
ag606
ag714
ag822
ag930
ag1038
ag138
ag282
ag426
ag534
ag642
ag750
ag858
ag966
asI28
(lp2048
g31
ag175
ag319
ag463
ag571
ag679
ag787
ag895
ag1003
ag103
ag247
ag391
ag499
ag607
ag715
ag823
ag931
ag1039
ag139
ag283
ag427
ag535
ag643
ag751
ag859
ag967
asI29
(lp2049
g32
ag176
ag320
ag464
ag572
ag680
ag788
ag896
ag1004
ag104
ag248
ag392
ag500
ag608
ag716
ag824
ag932
ag1040
ag140
ag284
ag428
ag536
ag644
ag752
ag860
ag968
asI30
(lp2050
g33
ag177
ag321
ag465
ag573
ag681
ag789
ag897
ag1005
ag105
ag249
ag393
ag501
ag609
ag717
ag825
ag933
ag1041
ag141
ag285
ag429
ag537
ag645
ag753
ag861
ag969
asI31
(lp2051
g34
ag178
ag322
ag466
ag574
ag682
ag790
ag898
ag1006
ag106
ag250
ag394
ag502
ag610
ag718
ag826
ag934
ag1042
ag142
ag286
ag430
ag538
ag646
ag754
ag862
ag970
asI32
(lp2052
g35
ag179
ag323
ag467
ag575
ag683
ag791
ag899
ag1007
ag107
ag251
ag395
ag503
ag611
ag719
ag827
ag935
ag1043
ag143
ag287
ag431
ag539
ag647
ag755
ag863
ag971
asI33
(lp2053
g36
ag180
ag324
ag468
ag576
ag684
ag792
ag900
ag1008
ag108
ag252
ag396
ag504
ag612
ag720
ag828
ag936
ag1044
ag144
ag288
ag432
ag540
ag648
ag756
ag864
ag972
asI34
(lp2054
g37
ag181
ag325
ag469
ag577
ag685
ag793
ag901
ag1009
ag109
ag253
ag397
ag505
ag613
ag721
ag829
ag937
ag1045
ag145
ag289
ag433
ag541
ag649
ag757
ag865
ag973
assI120
(dp2055
I0
(lp2056
g3
ag147
ag291
ag435
ag543
ag651
ag759
ag867
ag975
asI1
(lp2057
g4
ag148
ag292
ag436
ag544
ag652
ag760
ag868
ag976
asI2
(lp2058
g5
ag149
ag293
ag437
ag545
ag653
ag761
ag869
ag977
asI3
(lp2059
g6
ag150
ag294
ag438
ag546
ag654
ag762
ag870
ag978
asI4
(lp2060
g7
ag151
ag295
ag439
ag547
ag655
ag763
ag871
ag979
asI5
(lp2061
g8
ag152
ag296
ag440
ag548
ag656
ag764
ag872
ag980
asI6
(lp2062
g9
ag153
ag297
ag441
ag549
ag657
ag765
ag873
ag981
asI7
(lp2063
g10
ag154
ag298
ag442
ag550
ag658
ag766
ag874
ag982
asI8
(lp2064
g11
ag155
ag299
ag443
ag551
ag659
ag767
ag875
ag983
asI9
(lp2065
g12
ag156
ag300
ag444
ag552
ag660
ag768
ag876
ag984
asI10
(lp2066
g13
ag157
ag301
ag445
ag553
ag661
ag769
ag877
ag985
asI11
(lp2067
g14
ag158
ag302
ag446
ag554
ag662
ag770
ag878
ag986
asI12
(lp2068
g15
ag159
ag303
ag447
ag555
ag663
ag771
ag879
ag987
asI13
(lp2069
g16
ag160
ag304
ag448
ag556
ag664
ag772
ag880
ag988
asI14
(lp2070
g17
ag161
ag305
ag449
ag557
ag665
ag773
ag881
ag989
asI15
(lp2071
g18
ag162
ag306
ag450
ag558
ag666
ag774
ag882
ag990
asI16
(lp2072
g19
ag163
ag307
ag451
ag559
ag667
ag775
ag883
ag991
asI17
(lp2073
g20
ag164
ag308
ag452
ag560
ag668
ag776
ag884
ag992
asI18
(lp2074
g21
ag165
ag309
ag453
ag561
ag669
ag777
ag885
ag993
asI19
(lp2075
g22
ag166
ag310
ag454
ag562
ag670
ag778
ag886
ag994
asI20
(lp2076
g23
ag167
ag311
ag455
ag563
ag671
ag779
ag887
ag995
asI21
(lp2077
g24
ag168
ag312
ag456
ag564
ag672
ag780
ag888
ag996
asI22
(lp2078
g25
ag169
ag313
ag457
ag565
ag673
ag781
ag889
ag997
asI23
(lp2079
g26
ag170
ag314
ag458
ag566
ag674
ag782
ag890
ag998
asI24
(lp2080
g27
ag171
ag315
ag459
ag567
ag675
ag783
ag891
ag999
asI25
(lp2081
g28
ag172
ag316
ag460
ag568
ag676
ag784
ag892
ag1000
asI26
(lp2082
g29
ag173
ag317
ag461
ag569
ag677
ag785
ag893
ag1001
asI27
(lp2083
g30
ag174
ag318
ag462
ag570
ag678
ag786
ag894
ag1002
asI28
(lp2084
g31
ag175
ag319
ag463
ag571
ag679
ag787
ag895
ag1003
asI29
(lp2085
g32
ag176
ag320
ag464
ag572
ag680
ag788
ag896
ag1004
asI30
(lp2086
g33
ag177
ag321
ag465
ag573
ag681
ag789
ag897
ag1005
asI31
(lp2087
g34
ag178
ag322
ag466
ag574
ag682
ag790
ag898
ag1006
asI32
(lp2088
g35
ag179
ag323
ag467
ag575
ag683
ag791
ag899
ag1007
asI33
(lp2089
g36
ag180
ag324
ag468
ag576
ag684
ag792
ag900
ag1008
asI34
(lp2090
g37
ag181
ag325
ag469
ag577
ag685
ag793
ag901
ag1009
assI255
(dp2091
I0
(lp2092
g3
ag147
ag291
ag435
ag543
ag651
ag759
ag867
ag975
ag75
ag219
ag363
ag471
ag579
ag687
ag795
ag903
ag1011
asI1
(lp2093
g4
ag148
ag292
ag436
ag544
ag652
ag760
ag868
ag976
ag76
ag220
ag364
ag472
ag580
ag688
ag796
ag904
ag1012
asI2
(lp2094
g5
ag149
ag293
ag437
ag545
ag653
ag761
ag869
ag977
ag77
ag221
ag365
ag473
ag581
ag689
ag797
ag905
ag1013
asI3
(lp2095
g6
ag150
ag294
ag438
ag546
ag654
ag762
ag870
ag978
ag78
ag222
ag366
ag474
ag582
ag690
ag798
ag906
ag1014
asI4
(lp2096
g7
ag151
ag295
ag439
ag547
ag655
ag763
ag871
ag979
ag79
ag223
ag367
ag475
ag583
ag691
ag799
ag907
ag1015
asI5
(lp2097
g8
ag152
ag296
ag440
ag548
ag656
ag764
ag872
ag980
ag80
ag224
ag368
ag476
ag584
ag692
ag800
ag908
ag1016
asI6
(lp2098
g9
ag153
ag297
ag441
ag549
ag657
ag765
ag873
ag981
ag81
ag225
ag369
ag477
ag585
ag693
ag801
ag909
ag1017
asI7
(lp2099
g10
ag154
ag298
ag442
ag550
ag658
ag766
ag874
ag982
ag82
ag226
ag370
ag478
ag586
ag694
ag802
ag910
ag1018
asI8
(lp2100
g11
ag155
ag299
ag443
ag551
ag659
ag767
ag875
ag983
ag83
ag227
ag371
ag479
ag587
ag695
ag803
ag911
ag1019
asI9
(lp2101
g12
ag156
ag300
ag444
ag552
ag660
ag768
ag876
ag984
ag84
ag228
ag372
ag480
ag588
ag696
ag804
ag912
ag1020
asI10
(lp2102
g13
ag157
ag301
ag445
ag553
ag661
ag769
ag877
ag985
ag85
ag229
ag373
ag481
ag589
ag697
ag805
ag913
ag1021
asI11
(lp2103
g14
ag158
ag302
ag446
ag554
ag662
ag770
ag878
ag986
ag86
ag230
ag374
ag482
ag590
ag698
ag806
ag914
ag1022
asI12
(lp2104
g15
ag159
ag303
ag447
ag555
ag663
ag771
ag879
ag987
ag87
ag231
ag375
ag483
ag591
ag699
ag807
ag915
ag1023
asI13
(lp2105
g16
ag160
ag304
ag448
ag556
ag664
ag772
ag880
ag988
ag88
ag232
ag376
ag484
ag592
ag700
ag808
ag916
ag1024
asI14
(lp2106
g17
ag161
ag305
ag449
ag557
ag665
ag773
ag881
ag989
ag89
ag233
ag377
ag485
ag593
ag701
ag809
ag917
ag1025
asI15
(lp2107
g18
ag162
ag306
ag450
ag558
ag666
ag774
ag882
ag990
ag90
ag234
ag378
ag486
ag594
ag702
ag810
ag918
ag1026
asI16
(lp2108
g19
ag163
ag307
ag451
ag559
ag667
ag775
ag883
ag991
ag91
ag235
ag379
ag487
ag595
ag703
ag811
ag919
ag1027
asI17
(lp2109
g20
ag164
ag308
ag452
ag560
ag668
ag776
ag884
ag992
ag92
ag236
ag380
ag488
ag596
ag704
ag812
ag920
ag1028
asI18
(lp2110
g21
ag165
ag309
ag453
ag561
ag669
ag777
ag885
ag993
ag93
ag237
ag381
ag489
ag597
ag705
ag813
ag921
ag1029
asI19
(lp2111
g22
ag166
ag310
ag454
ag562
ag670
ag778
ag886
ag994
ag94
ag238
ag382
ag490
ag598
ag706
ag814
ag922
ag1030
asI20
(lp2112
g23
ag167
ag311
ag455
ag563
ag671
ag779
ag887
ag995
ag95
ag239
ag383
ag491
ag599
ag707
ag815
ag923
ag1031
asI21
(lp2113
g24
ag168
ag312
ag456
ag564
ag672
ag780
ag888
ag996
ag96
ag240
ag384
ag492
ag600
ag708
ag816
ag924
ag1032
asI22
(lp2114
g25
ag169
ag313
ag457
ag565
ag673
ag781
ag889
ag997
ag97
ag241
ag385
ag493
ag601
ag709
ag817
ag925
ag1033
asI23
(lp2115
g26
ag170
ag314
ag458
ag566
ag674
ag782
ag890
ag998
ag98
ag242
ag386
ag494
ag602
ag710
ag818
ag926
ag1034
asI24
(lp2116
g27
ag171
ag315
ag459
ag567
ag675
ag783
ag891
ag999
ag99
ag243
ag387
ag495
ag603
ag711
ag819
ag927
ag1035
asI25
(lp2117
g28
ag172
ag316
ag460
ag568
ag676
ag784
ag892
ag1000
ag100
ag244
ag388
ag496
ag604
ag712
ag820
ag928
ag1036
asI26
(lp2118
g29
ag173
ag317
ag461
ag569
ag677
ag785
ag893
ag1001
ag101
ag245
ag389
ag497
ag605
ag713
ag821
ag929
ag1037
asI27
(lp2119
g30
ag174
ag318
ag462
ag570
ag678
ag786
ag894
ag1002
ag102
ag246
ag390
ag498
ag606
ag714
ag822
ag930
ag1038
asI28
(lp2120
g31
ag175
ag319
ag463
ag571
ag679
ag787
ag895
ag1003
ag103
ag247
ag391
ag499
ag607
ag715
ag823
ag931
ag1039
asI29
(lp2121
g32
ag176
ag320
ag464
ag572
ag680
ag788
ag896
ag1004
ag104
ag248
ag392
ag500
ag608
ag716
ag824
ag932
ag1040
asI30
(lp2122
g33
ag177
ag321
ag465
ag573
ag681
ag789
ag897
ag1005
ag105
ag249
ag393
ag501
ag609
ag717
ag825
ag933
ag1041
asI31
(lp2123
g34
ag178
ag322
ag466
ag574
ag682
ag790
ag898
ag1006
ag106
ag250
ag394
ag502
ag610
ag718
ag826
ag934
ag1042
asI32
(lp2124
g35
ag179
ag323
ag467
ag575
ag683
ag791
ag899
ag1007
ag107
ag251
ag395
ag503
ag611
ag719
ag827
ag935
ag1043
asI33
(lp2125
g36
ag180
ag324
ag468
ag576
ag684
ag792
ag900
ag1008
ag108
ag252
ag396
ag504
ag612
ag720
ag828
ag936
ag1044
asI34
(lp2126
g37
ag181
ag325
ag469
ag577
ag685
ag793
ag901
ag1009
ag109
ag253
ag397
ag505
ag613
ag721
ag829
ag937
ag1045
assa.